###############################################################################
#                                                                             #
# IAR ANSI C/C++ Compiler V5.30.2.51295/W32 for ARM     28/Dec/2014  20:59:03 #
# Copyright 1999-2009 IAR Systems AB.                                         #
#                                                                             #
#    Cpu mode     =  thumb                                                    #
#    Endian       =  little                                                   #
#    Source file  =  C:\Users\Administrator\Desktop\uCOS-II\Micrium\Software\ #
#                    uCOS-II\Source\os_flag.c                                 #
#    Command line =  C:\Users\Administrator\Desktop\uCOS-II\Micrium\Software\ #
#                    uCOS-II\Source\os_flag.c -lCN                            #
#                    C:\Users\Administrator\Desktop\uCOS-II\Micrium\Software\ #
#                    EvalBoards\ST\STM32-SK\IAR\OS-Probe-LCD\Flash\List\ -o   #
#                    C:\Users\Administrator\Desktop\uCOS-II\Micrium\Software\ #
#                    EvalBoards\ST\STM32-SK\IAR\OS-Probe-LCD\Flash\Obj\       #
#                    --no_unroll --no_inline --no_tbaa --no_scheduling        #
#                    --debug --endian=little --cpu=Cortex-M3 -e --fpu=None    #
#                    --dlib_config "F:\Program Files (x86)\IAR                #
#                    Systems\Embedded Workbench 5.4\arm\INC\DLib_Config_Norma #
#                    l.h" -I C:\Users\Administrator\Desktop\uCOS-II\Micrium\S #
#                    oftware\EvalBoards\ST\STM32-SK\IAR\OS-Probe-LCD\ -I      #
#                    C:\Users\Administrator\Desktop\uCOS-II\Micrium\Software\ #
#                    EvalBoards\ST\STM32-SK\IAR\OS-Probe-LCD\..\BSP\ -I       #
#                    C:\Users\Administrator\Desktop\uCOS-II\Micrium\Software\ #
#                    EvalBoards\ST\STM32-SK\IAR\OS-Probe-LCD\..\..\..\..\..\C #
#                    PU\ST\STM32\inc\ -I C:\Users\Administrator\Desktop\uCOS- #
#                    II\Micrium\Software\EvalBoards\ST\STM32-SK\IAR\OS-Probe- #
#                    LCD\..\..\..\..\..\uC-CPU\ -I                            #
#                    C:\Users\Administrator\Desktop\uCOS-II\Micrium\Software\ #
#                    EvalBoards\ST\STM32-SK\IAR\OS-Probe-LCD\..\..\..\..\..\u #
#                    C-CPU\ARM-Cortex-M3\IAR\ -I                              #
#                    C:\Users\Administrator\Desktop\uCOS-II\Micrium\Software\ #
#                    EvalBoards\ST\STM32-SK\IAR\OS-Probe-LCD\..\..\..\..\..\u #
#                    C-LCD\Source\ -I C:\Users\Administrator\Desktop\uCOS-II\ #
#                    Micrium\Software\EvalBoards\ST\STM32-SK\IAR\OS-Probe-LCD #
#                    \..\..\..\..\..\uC-LIB\ -I C:\Users\Administrator\Deskto #
#                    p\uCOS-II\Micrium\Software\EvalBoards\ST\STM32-SK\IAR\OS #
#                    -Probe-LCD\..\..\..\..\..\uCOS-II\Ports\ARM-Cortex-M3\Ge #
#                    neric\IAR\ -I C:\Users\Administrator\Desktop\uCOS-II\Mic #
#                    rium\Software\EvalBoards\ST\STM32-SK\IAR\OS-Probe-LCD\.. #
#                    \..\..\..\..\uCOS-II\Source\ -I                          #
#                    C:\Users\Administrator\Desktop\uCOS-II\Micrium\Software\ #
#                    EvalBoards\ST\STM32-SK\IAR\OS-Probe-LCD\..\..\..\..\..\u #
#                    C-Probe\Target\Communication\Generic\RS-232\Source\ -I   #
#                    C:\Users\Administrator\Desktop\uCOS-II\Micrium\Software\ #
#                    EvalBoards\ST\STM32-SK\IAR\OS-Probe-LCD\..\..\..\..\..\u #
#                    C-Probe\Target\Communication\Generic\RS-232\Ports\ST\STM #
#                    32\ -I C:\Users\Administrator\Desktop\uCOS-II\Micrium\So #
#                    ftware\EvalBoards\ST\STM32-SK\IAR\OS-Probe-LCD\..\..\..\ #
#                    ..\..\uC-Probe\Target\Communication\Generic\Source\ -I   #
#                    C:\Users\Administrator\Desktop\uCOS-II\Micrium\Software\ #
#                    EvalBoards\ST\STM32-SK\IAR\OS-Probe-LCD\..\..\..\..\..\u #
#                    C-Probe\Target\Plugins\uCOS-II\ -I "F:\Program Files     #
#                    (x86)\IAR Systems\Embedded Workbench 5.4\arm\INC\" -Om   #
#    List file    =  C:\Users\Administrator\Desktop\uCOS-II\Micrium\Software\ #
#                    EvalBoards\ST\STM32-SK\IAR\OS-Probe-LCD\Flash\List\os_fl #
#                    ag.lst                                                   #
#    Object file  =  C:\Users\Administrator\Desktop\uCOS-II\Micrium\Software\ #
#                    EvalBoards\ST\STM32-SK\IAR\OS-Probe-LCD\Flash\Obj\os_fla #
#                    g.o                                                      #
#                                                                             #
#                                                                             #
###############################################################################

C:\Users\Administrator\Desktop\uCOS-II\Micrium\Software\uCOS-II\Source\os_flag.c
      1          /*
      2          *********************************************************************************************************
      3          *                                                uC/OS-II
      4          *                                          The Real-Time Kernel
      5          *                                         EVENT FLAG  MANAGEMENT
      6          *
      7          *                              (c) Copyright 1992-2007, Micrium, Weston, FL
      8          *                                           All Rights Reserved
      9          *
     10          * File    : OS_FLAG.C
     11          * By      : Jean J. Labrosse
     12          * Version : V2.86
     13          *
     14          * LICENSING TERMS:
     15          * ---------------
     16          *   uC/OS-II is provided in source form for FREE evaluation, for educational use or for peaceful research.  
     17          * If you plan on using  uC/OS-II  in a commercial product you need to contact Micriµm to properly license 
     18          * its use in your product. We provide ALL the source code for your convenience and to help you experience 
     19          * uC/OS-II.   The fact that the  source is provided does  NOT  mean that you can use it without  paying a 
     20          * licensing fee.
     21          *********************************************************************************************************
     22          */
     23          
     24          #ifndef  OS_MASTER_FILE
     25          #include <ucos_ii.h>
     26          #endif
     27          
     28          #if (OS_FLAG_EN > 0) && (OS_MAX_FLAGS > 0)
     29          /*
     30          *********************************************************************************************************
     31          *                                            LOCAL PROTOTYPES
     32          *********************************************************************************************************
     33          */
     34          
     35          static  void     OS_FlagBlock(OS_FLAG_GRP *pgrp, OS_FLAG_NODE *pnode, OS_FLAGS flags, INT8U wait_type, INT16U timeout);
     36          static  BOOLEAN  OS_FlagTaskRdy(OS_FLAG_NODE *pnode, OS_FLAGS flags_rdy);
     37          
     38          /*$PAGE*/
     39          /*
     40          *********************************************************************************************************
     41          *                              CHECK THE STATUS OF FLAGS IN AN EVENT FLAG GROUP
     42          *
     43          * Description: This function is called to check the status of a combination of bits to be set or cleared
     44          *              in an event flag group.  Your application can check for ANY bit to be set/cleared or ALL
     45          *              bits to be set/cleared.
     46          *
     47          *              This call does not block if the desired flags are not present.
     48          *
     49          * Arguments  : pgrp          is a pointer to the desired event flag group.
     50          *
     51          *              flags         Is a bit pattern indicating which bit(s) (i.e. flags) you wish to check.
     52          *                            The bits you want are specified by setting the corresponding bits in
     53          *                            'flags'.  e.g. if your application wants to wait for bits 0 and 1 then
     54          *                            'flags' would contain 0x03.
     55          *
     56          *              wait_type     specifies whether you want ALL bits to be set/cleared or ANY of the bits
     57          *                            to be set/cleared.
     58          *                            You can specify the following argument:
     59          *
     60          *                            OS_FLAG_WAIT_CLR_ALL   You will check ALL bits in 'flags' to be clear (0)
     61          *                            OS_FLAG_WAIT_CLR_ANY   You will check ANY bit  in 'flags' to be clear (0)
     62          *                            OS_FLAG_WAIT_SET_ALL   You will check ALL bits in 'flags' to be set   (1)
     63          *                            OS_FLAG_WAIT_SET_ANY   You will check ANY bit  in 'flags' to be set   (1)
     64          *
     65          *                            NOTE: Add OS_FLAG_CONSUME if you want the event flag to be 'consumed' by
     66          *                                  the call.  Example, to wait for any flag in a group AND then clear
     67          *                                  the flags that are present, set 'wait_type' to:
     68          *
     69          *                                  OS_FLAG_WAIT_SET_ANY + OS_FLAG_CONSUME
     70          *
     71          *              perr          is a pointer to an error code and can be:
     72          *                            OS_ERR_NONE               No error
     73          *                            OS_ERR_EVENT_TYPE         You are not pointing to an event flag group
     74          *                            OS_ERR_FLAG_WAIT_TYPE     You didn't specify a proper 'wait_type' argument.
     75          *                            OS_ERR_FLAG_INVALID_PGRP  You passed a NULL pointer instead of the event flag
     76          *                                                      group handle.
     77          *                            OS_ERR_FLAG_NOT_RDY       The desired flags you are waiting for are not
     78          *                                                      available.
     79          *
     80          * Returns    : The flags in the event flag group that made the task ready or, 0 if a timeout or an error
     81          *              occurred.
     82          *
     83          * Called from: Task or ISR
     84          *
     85          * Note(s)    : 1) IMPORTANT, the behavior of this function has changed from PREVIOUS versions.  The
     86          *                 function NOW returns the flags that were ready INSTEAD of the current state of the
     87          *                 event flags.
     88          *********************************************************************************************************
     89          */
     90          
     91          #if OS_FLAG_ACCEPT_EN > 0

   \                                 In section .text, align 2, keep-with-next
     92          OS_FLAGS  OSFlagAccept (OS_FLAG_GRP *pgrp, OS_FLAGS flags, INT8U wait_type, INT8U *perr)
     93          {
   \                     OSFlagAccept:
   \   00000000   2DE9F041           PUSH     {R4-R8,LR}
   \   00000004   0746               MOV      R7,R0
   \   00000006   0C46               MOV      R4,R1
   \   00000008   1546               MOV      R5,R2
   \   0000000A   1E00               MOVS     R6,R3
     94              OS_FLAGS      flags_rdy;
     95              INT8U         result;
     96              BOOLEAN       consume;
     97          #if OS_CRITICAL_METHOD == 3                                /* Allocate storage for CPU status register */
     98              OS_CPU_SR     cpu_sr = 0;
     99          #endif
    100          
    101          
    102          
    103          #if OS_ARG_CHK_EN > 0
    104              if (perr == (INT8U *)0) {                              /* Validate 'perr'                          */
   \   0000000C   02D1               BNE.N    ??OSFlagAccept_0
    105                  return ((OS_FLAGS)0);
   \   0000000E   0020               MOVS     R0,#+0
   \   00000010   BDE8F081           POP      {R4-R8,PC}
    106              }
    107              if (pgrp == (OS_FLAG_GRP *)0) {                        /* Validate 'pgrp'                          */
   \                     ??OSFlagAccept_0:
   \   00000014   002F               CMP      R7,#+0
   \   00000016   04D1               BNE.N    ??OSFlagAccept_1
    108                  *perr = OS_ERR_FLAG_INVALID_PGRP;
   \   00000018   6E20               MOVS     R0,#+110
   \   0000001A   3070               STRB     R0,[R6, #+0]
    109                  return ((OS_FLAGS)0);
   \   0000001C   0020               MOVS     R0,#+0
   \   0000001E   BDE8F081           POP      {R4-R8,PC}
    110              }
    111          #endif
    112              if (pgrp->OSFlagType != OS_EVENT_TYPE_FLAG) {          /* Validate event block type                */
   \                     ??OSFlagAccept_1:
   \   00000022   3878               LDRB     R0,[R7, #+0]
   \   00000024   0528               CMP      R0,#+5
   \   00000026   04D0               BEQ.N    ??OSFlagAccept_2
    113                  *perr = OS_ERR_EVENT_TYPE;
   \   00000028   0120               MOVS     R0,#+1
   \   0000002A   3070               STRB     R0,[R6, #+0]
    114                  return ((OS_FLAGS)0);
   \   0000002C   0020               MOVS     R0,#+0
   \   0000002E   BDE8F081           POP      {R4-R8,PC}
    115              }
    116              result = (INT8U)(wait_type & OS_FLAG_CONSUME);
    117              if (result != (INT8U)0) {                              /* See if we need to consume the flags      */
   \                     ??OSFlagAccept_2:
   \   00000032   15F0800F           TST      R5,#0x80
   \   00000036   04D0               BEQ.N    ??OSFlagAccept_3
    118                  wait_type &= ~OS_FLAG_CONSUME;
   \   00000038   05F07F05           AND      R5,R5,#0x7F
    119                  consume    = OS_TRUE;
   \   0000003C   4FF00108           MOV      R8,#+1
   \   00000040   01E0               B.N      ??OSFlagAccept_4
    120              } else {
    121                  consume    = OS_FALSE;
   \                     ??OSFlagAccept_3:
   \   00000042   4FF00008           MOV      R8,#+0
    122              }
    123          /*$PAGE*/
    124              *perr = OS_ERR_NONE;                                   /* Assume NO error until proven otherwise.  */
   \                     ??OSFlagAccept_4:
   \   00000046   0020               MOVS     R0,#+0
   \   00000048   3070               STRB     R0,[R6, #+0]
    125              OS_ENTER_CRITICAL();
   \   0000004A   ........           BL       OS_CPU_SR_Save
    126              switch (wait_type) {
   \   0000004E   002D               CMP      R5,#+0
   \   00000050   1CD0               BEQ.N    ??OSFlagAccept_5
   \   00000052   022D               CMP      R5,#+2
   \   00000054   03D0               BEQ.N    ??OSFlagAccept_6
   \   00000056   27D3               BCC.N    ??OSFlagAccept_7
   \   00000058   032D               CMP      R5,#+3
   \   0000005A   0ED0               BEQ.N    ??OSFlagAccept_8
   \   0000005C   2AE0               B.N      ??OSFlagAccept_9
    127                  case OS_FLAG_WAIT_SET_ALL:                         /* See if all required flags are set        */
    128                       flags_rdy = (OS_FLAGS)(pgrp->OSFlagFlags & flags);     /* Extract only the bits we want   */
   \                     ??OSFlagAccept_6:
   \   0000005E   3989               LDRH     R1,[R7, #+8]
   \   00000060   04EA0105           AND      R5,R4,R1
    129                       if (flags_rdy == flags) {                     /* Must match ALL the bits that we want     */
   \   00000064   2946               MOV      R1,R5
   \   00000066   A142               CMP      R1,R4
   \   00000068   0BD1               BNE.N    ??OSFlagAccept_10
    130                           if (consume == OS_TRUE) {                 /* See if we need to consume the flags      */
   \                     ??OSFlagAccept_11:
   \   0000006A   B8F1010F           CMP      R8,#+1
   \   0000006E   0AD1               BNE.N    ??OSFlagAccept_12
    131                               pgrp->OSFlagFlags &= ~flags_rdy;      /* Clear ONLY the flags that we wanted      */
   \   00000070   3989               LDRH     R1,[R7, #+8]
   \   00000072   EA43               MVNS     R2,R5
   \   00000074   1140               ANDS     R1,R2,R1
   \   00000076   3981               STRH     R1,[R7, #+8]
   \   00000078   05E0               B.N      ??OSFlagAccept_12
    132                           }
    133                       } else {
    134                           *perr = OS_ERR_FLAG_NOT_RDY;
    135                       }
    136                       OS_EXIT_CRITICAL();
    137                       break;
    138          
    139                  case OS_FLAG_WAIT_SET_ANY:
    140                       flags_rdy = (OS_FLAGS)(pgrp->OSFlagFlags & flags);     /* Extract only the bits we want   */
   \                     ??OSFlagAccept_8:
   \   0000007A   3989               LDRH     R1,[R7, #+8]
   \   0000007C   14EA0105           ANDS     R5,R4,R1
    141                       if (flags_rdy != (OS_FLAGS)0) {               /* See if any flag set                      */
   \   00000080   F3D1               BNE.N    ??OSFlagAccept_11
   \                     ??OSFlagAccept_10:
   \   00000082   7021               MOVS     R1,#+112
   \   00000084   3170               STRB     R1,[R6, #+0]
   \                     ??OSFlagAccept_12:
   \   00000086   ........           BL       OS_CPU_SR_Restore
   \   0000008A   18E0               B.N      ??OSFlagAccept_13
    142                           if (consume == OS_TRUE) {                 /* See if we need to consume the flags      */
    143                               pgrp->OSFlagFlags &= ~flags_rdy;      /* Clear ONLY the flags that we got         */
    144                           }
    145                       } else {
    146                           *perr = OS_ERR_FLAG_NOT_RDY;
    147                       }
    148                       OS_EXIT_CRITICAL();
    149                       break;
    150          
    151          #if OS_FLAG_WAIT_CLR_EN > 0
    152                  case OS_FLAG_WAIT_CLR_ALL:                         /* See if all required flags are cleared    */
    153                       flags_rdy = (OS_FLAGS)(~pgrp->OSFlagFlags & flags);  /* Extract only the bits we want     */
   \                     ??OSFlagAccept_5:
   \   0000008C   3989               LDRH     R1,[R7, #+8]
   \   0000008E   C943               MVNS     R1,R1
   \   00000090   04EA0105           AND      R5,R4,R1
    154                       if (flags_rdy == flags) {                     /* Must match ALL the bits that we want     */
   \   00000094   2946               MOV      R1,R5
   \   00000096   A142               CMP      R1,R4
   \   00000098   F3D1               BNE.N    ??OSFlagAccept_10
    155                           if (consume == OS_TRUE) {                 /* See if we need to consume the flags      */
   \                     ??OSFlagAccept_14:
   \   0000009A   B8F1010F           CMP      R8,#+1
   \   0000009E   F2D1               BNE.N    ??OSFlagAccept_12
    156                               pgrp->OSFlagFlags |= flags_rdy;       /* Set ONLY the flags that we wanted        */
   \   000000A0   3989               LDRH     R1,[R7, #+8]
   \   000000A2   2943               ORRS     R1,R5,R1
   \   000000A4   3981               STRH     R1,[R7, #+8]
   \   000000A6   EEE7               B.N      ??OSFlagAccept_12
    157                           }
    158                       } else {
    159                           *perr = OS_ERR_FLAG_NOT_RDY;
    160                       }
    161                       OS_EXIT_CRITICAL();
    162                       break;
    163          
    164                  case OS_FLAG_WAIT_CLR_ANY:
    165                       flags_rdy = (OS_FLAGS)(~pgrp->OSFlagFlags & flags); /* Extract only the bits we want      */
   \                     ??OSFlagAccept_7:
   \   000000A8   3989               LDRH     R1,[R7, #+8]
   \   000000AA   C943               MVNS     R1,R1
   \   000000AC   14EA0105           ANDS     R5,R4,R1
    166                       if (flags_rdy != (OS_FLAGS)0) {               /* See if any flag cleared                  */
   \   000000B0   F3D1               BNE.N    ??OSFlagAccept_14
   \   000000B2   E6E7               B.N      ??OSFlagAccept_10
    167                           if (consume == OS_TRUE) {                 /* See if we need to consume the flags      */
    168                               pgrp->OSFlagFlags |= flags_rdy;       /* Set ONLY the flags that we got           */
    169                           }
    170                       } else {
    171                           *perr = OS_ERR_FLAG_NOT_RDY;
    172                       }
    173                       OS_EXIT_CRITICAL();
    174                       break;
    175          #endif
    176          
    177                  default:
    178                       OS_EXIT_CRITICAL();
   \                     ??OSFlagAccept_9:
   \   000000B4   ........           BL       OS_CPU_SR_Restore
    179                       flags_rdy = (OS_FLAGS)0;
   \   000000B8   0025               MOVS     R5,#+0
    180                       *perr     = OS_ERR_FLAG_WAIT_TYPE;
   \   000000BA   6F20               MOVS     R0,#+111
   \   000000BC   3070               STRB     R0,[R6, #+0]
    181                       break;
    182              }
    183              return (flags_rdy);
   \                     ??OSFlagAccept_13:
   \   000000BE   2846               MOV      R0,R5
   \   000000C0   BDE8F081           POP      {R4-R8,PC}       ;; return
    184          }
    185          #endif
    186          
    187          /*$PAGE*/
    188          /*
    189          *********************************************************************************************************
    190          *                                           CREATE AN EVENT FLAG
    191          *
    192          * Description: This function is called to create an event flag group.
    193          *
    194          * Arguments  : flags         Contains the initial value to store in the event flag group.
    195          *
    196          *              perr          is a pointer to an error code which will be returned to your application:
    197          *                               OS_ERR_NONE               if the call was successful.
    198          *                               OS_ERR_CREATE_ISR         if you attempted to create an Event Flag from an
    199          *                                                         ISR.
    200          *                               OS_ERR_FLAG_GRP_DEPLETED  if there are no more event flag groups
    201          *
    202          * Returns    : A pointer to an event flag group or a NULL pointer if no more groups are available.
    203          *
    204          * Called from: Task ONLY
    205          *********************************************************************************************************
    206          */
    207          

   \                                 In section .text, align 2, keep-with-next
    208          OS_FLAG_GRP  *OSFlagCreate (OS_FLAGS flags, INT8U *perr)
    209          {
   \                     OSFlagCreate:
   \   00000000   70B5               PUSH     {R4-R6,LR}
   \   00000002   0546               MOV      R5,R0
   \   00000004   0C00               MOVS     R4,R1
    210              OS_FLAG_GRP *pgrp;
    211          #if OS_CRITICAL_METHOD == 3                         /* Allocate storage for CPU status register        */
    212              OS_CPU_SR    cpu_sr = 0;
    213          #endif
    214          
    215          
    216          
    217          #if OS_ARG_CHK_EN > 0
    218              if (perr == (INT8U *)0) {                       /* Validate 'perr'                                 */
   \   00000006   01D1               BNE.N    ??OSFlagCreate_0
    219                  return ((OS_FLAG_GRP *)0);
   \   00000008   0020               MOVS     R0,#+0
   \   0000000A   70BD               POP      {R4-R6,PC}
    220              }
    221          #endif
    222              if (OSIntNesting > 0) {                         /* See if called from ISR ...                      */
   \                     ??OSFlagCreate_0:
   \   0000000C   ........           LDR.W    R0,??DataTable7  ;; OSIntNesting
   \   00000010   0078               LDRB     R0,[R0, #+0]
   \   00000012   0028               CMP      R0,#+0
   \   00000014   03D0               BEQ.N    ??OSFlagCreate_1
    223                  *perr = OS_ERR_CREATE_ISR;                  /* ... can't CREATE from an ISR                    */
   \   00000016   1020               MOVS     R0,#+16
   \   00000018   2070               STRB     R0,[R4, #+0]
    224                  return ((OS_FLAG_GRP *)0);
   \   0000001A   0020               MOVS     R0,#+0
   \   0000001C   70BD               POP      {R4-R6,PC}
    225              }
    226              OS_ENTER_CRITICAL();
   \                     ??OSFlagCreate_1:
   \   0000001E   ........           BL       OS_CPU_SR_Save
    227              pgrp = OSFlagFreeList;                          /* Get next free event flag                        */
   \   00000022   ........           LDR.W    R1,??DataTable14  ;; OSFlagFreeList
   \   00000026   0A68               LDR      R2,[R1, #+0]
   \   00000028   1600               MOVS     R6,R2
    228              if (pgrp != (OS_FLAG_GRP *)0) {                 /* See if we have event flag groups available      */
   \   0000002A   0FD0               BEQ.N    ??OSFlagCreate_2
    229                                                              /* Adjust free list                                */
    230                  OSFlagFreeList       = (OS_FLAG_GRP *)OSFlagFreeList->OSFlagWaitList;
   \   0000002C   5268               LDR      R2,[R2, #+4]
   \   0000002E   0A60               STR      R2,[R1, #+0]
    231                  pgrp->OSFlagType     = OS_EVENT_TYPE_FLAG;  /* Set to event flag group type                    */
   \   00000030   0521               MOVS     R1,#+5
   \   00000032   3170               STRB     R1,[R6, #+0]
    232                  pgrp->OSFlagFlags    = flags;               /* Set to desired initial value                    */
   \   00000034   3581               STRH     R5,[R6, #+8]
    233                  pgrp->OSFlagWaitList = (void *)0;           /* Clear list of tasks waiting on flags            */
   \   00000036   0021               MOVS     R1,#+0
   \   00000038   7160               STR      R1,[R6, #+4]
    234          #if OS_FLAG_NAME_SIZE > 1
    235                  pgrp->OSFlagName[0]  = '?';
   \   0000003A   3F21               MOVS     R1,#+63
   \   0000003C   B172               STRB     R1,[R6, #+10]
    236                  pgrp->OSFlagName[1]  = OS_ASCII_NUL;
   \   0000003E   0021               MOVS     R1,#+0
   \   00000040   F172               STRB     R1,[R6, #+11]
    237          #endif
    238                  OS_EXIT_CRITICAL();
   \   00000042   ........           BL       OS_CPU_SR_Restore
    239                  *perr                = OS_ERR_NONE;
   \   00000046   0020               MOVS     R0,#+0
   \   00000048   2070               STRB     R0,[R4, #+0]
   \   0000004A   03E0               B.N      ??OSFlagCreate_3
    240              } else {
    241                  OS_EXIT_CRITICAL();
   \                     ??OSFlagCreate_2:
   \   0000004C   ........           BL       OS_CPU_SR_Restore
    242                  *perr                = OS_ERR_FLAG_GRP_DEPLETED;
   \   00000050   7220               MOVS     R0,#+114
   \   00000052   2070               STRB     R0,[R4, #+0]
    243              }
    244              return (pgrp);                                  /* Return pointer to event flag group              */
   \                     ??OSFlagCreate_3:
   \   00000054   3046               MOV      R0,R6
   \   00000056   70BD               POP      {R4-R6,PC}       ;; return
    245          }
    246          
    247          /*$PAGE*/
    248          /*
    249          *********************************************************************************************************
    250          *                                     DELETE AN EVENT FLAG GROUP
    251          *
    252          * Description: This function deletes an event flag group and readies all tasks pending on the event flag
    253          *              group.
    254          *
    255          * Arguments  : pgrp          is a pointer to the desired event flag group.
    256          *
    257          *              opt           determines delete options as follows:
    258          *                            opt == OS_DEL_NO_PEND   Deletes the event flag group ONLY if no task pending
    259          *                            opt == OS_DEL_ALWAYS    Deletes the event flag group even if tasks are
    260          *                                                    waiting.  In this case, all the tasks pending will be
    261          *                                                    readied.
    262          *
    263          *              perr          is a pointer to an error code that can contain one of the following values:
    264          *                            OS_ERR_NONE               The call was successful and the event flag group was
    265          *                                                      deleted
    266          *                            OS_ERR_DEL_ISR            If you attempted to delete the event flag group from
    267          *                                                      an ISR
    268          *                            OS_ERR_FLAG_INVALID_PGRP  If 'pgrp' is a NULL pointer.
    269          *                            OS_ERR_EVENT_TYPE         If you didn't pass a pointer to an event flag group
    270          *                            OS_ERR_INVALID_OPT        An invalid option was specified
    271          *                            OS_ERR_TASK_WAITING       One or more tasks were waiting on the event flag
    272          *                                                      group.
    273          *
    274          * Returns    : pgrp          upon error
    275          *              (OS_EVENT *)0 if the event flag group was successfully deleted.
    276          *
    277          * Note(s)    : 1) This function must be used with care.  Tasks that would normally expect the presence of
    278          *                 the event flag group MUST check the return code of OSFlagAccept() and OSFlagPend().
    279          *              2) This call can potentially disable interrupts for a long time.  The interrupt disable
    280          *                 time is directly proportional to the number of tasks waiting on the event flag group.
    281          *********************************************************************************************************
    282          */
    283          
    284          #if OS_FLAG_DEL_EN > 0

   \                                 In section .text, align 2, keep-with-next
    285          OS_FLAG_GRP  *OSFlagDel (OS_FLAG_GRP *pgrp, INT8U opt, INT8U *perr)
    286          {
   \                     OSFlagDel:
   \   00000000   2DE9F041           PUSH     {R4-R8,LR}
   \   00000004   0446               MOV      R4,R0
   \   00000006   0E46               MOV      R6,R1
   \   00000008   1500               MOVS     R5,R2
    287              BOOLEAN       tasks_waiting;
    288              OS_FLAG_NODE *pnode;
    289              OS_FLAG_GRP  *pgrp_return;
    290          #if OS_CRITICAL_METHOD == 3                                /* Allocate storage for CPU status register */
    291              OS_CPU_SR     cpu_sr = 0;
    292          #endif
    293          
    294          
    295          
    296          #if OS_ARG_CHK_EN > 0
    297              if (perr == (INT8U *)0) {                              /* Validate 'perr'                          */
   \   0000000A   6CD0               BEQ.N    ??OSFlagDel_0
    298                  return (pgrp);
    299              }
    300              if (pgrp == (OS_FLAG_GRP *)0) {                        /* Validate 'pgrp'                          */
   \   0000000C   002C               CMP      R4,#+0
   \   0000000E   04D1               BNE.N    ??OSFlagDel_1
    301                  *perr = OS_ERR_FLAG_INVALID_PGRP;
   \   00000010   6E20               MOVS     R0,#+110
   \   00000012   2870               STRB     R0,[R5, #+0]
    302                  return (pgrp);
   \   00000014   0020               MOVS     R0,#+0
   \   00000016   BDE8F081           POP      {R4-R8,PC}
    303              }
    304          #endif
    305              if (OSIntNesting > 0) {                                /* See if called from ISR ...               */
   \                     ??OSFlagDel_1:
   \   0000001A   ....               LDR.N    R0,??DataTable7  ;; OSIntNesting
   \   0000001C   0078               LDRB     R0,[R0, #+0]
   \   0000001E   0028               CMP      R0,#+0
   \   00000020   04D0               BEQ.N    ??OSFlagDel_2
    306                  *perr = OS_ERR_DEL_ISR;                            /* ... can't DELETE from an ISR             */
   \   00000022   0F20               MOVS     R0,#+15
   \   00000024   2870               STRB     R0,[R5, #+0]
    307                  return (pgrp);
   \   00000026   2046               MOV      R0,R4
   \   00000028   BDE8F081           POP      {R4-R8,PC}
    308              }
    309              if (pgrp->OSFlagType != OS_EVENT_TYPE_FLAG) {          /* Validate event group type                */
   \                     ??OSFlagDel_2:
   \   0000002C   2078               LDRB     R0,[R4, #+0]
   \   0000002E   0528               CMP      R0,#+5
   \   00000030   04D0               BEQ.N    ??OSFlagDel_3
    310                  *perr = OS_ERR_EVENT_TYPE;
   \   00000032   0120               MOVS     R0,#+1
   \   00000034   2870               STRB     R0,[R5, #+0]
    311                  return (pgrp);
   \   00000036   2046               MOV      R0,R4
   \   00000038   BDE8F081           POP      {R4-R8,PC}
    312              }
    313              OS_ENTER_CRITICAL();
   \                     ??OSFlagDel_3:
   \   0000003C   ........           BL       OS_CPU_SR_Save
   \   00000040   0746               MOV      R7,R0
    314              if (pgrp->OSFlagWaitList != (void *)0) {               /* See if any tasks waiting on event flags  */
   \   00000042   6068               LDR      R0,[R4, #+4]
   \   00000044   0028               CMP      R0,#+0
   \   00000046   02D0               BEQ.N    ??OSFlagDel_4
    315                  tasks_waiting = OS_TRUE;                           /* Yes                                      */
   \   00000048   4FF00108           MOV      R8,#+1
   \   0000004C   01E0               B.N      ??OSFlagDel_5
    316              } else {
    317                  tasks_waiting = OS_FALSE;                          /* No                                       */
   \                     ??OSFlagDel_4:
   \   0000004E   4FF00008           MOV      R8,#+0
    318              }
    319              switch (opt) {
   \                     ??OSFlagDel_5:
   \   00000052   002E               CMP      R6,#+0
   \   00000054   02D0               BEQ.N    ??OSFlagDel_6
   \   00000056   012E               CMP      R6,#+1
   \   00000058   1ED0               BEQ.N    ??OSFlagDel_7
   \   0000005A   3EE0               B.N      ??OSFlagDel_8
    320                  case OS_DEL_NO_PEND:                               /* Delete group if no task waiting          */
    321                       if (tasks_waiting == OS_FALSE) {
   \                     ??OSFlagDel_6:
   \   0000005C   B8F1000F           CMP      R8,#+0
   \   00000060   12D1               BNE.N    ??OSFlagDel_9
    322          #if OS_FLAG_NAME_SIZE > 1
    323                           pgrp->OSFlagName[0]  = '?';               /* Unknown name                             */
   \   00000062   3F20               MOVS     R0,#+63
   \   00000064   A072               STRB     R0,[R4, #+10]
    324                           pgrp->OSFlagName[1]  = OS_ASCII_NUL;
   \   00000066   0020               MOVS     R0,#+0
   \   00000068   E072               STRB     R0,[R4, #+11]
    325          #endif
    326                           pgrp->OSFlagType     = OS_EVENT_TYPE_UNUSED;
   \   0000006A   2070               STRB     R0,[R4, #+0]
    327                           pgrp->OSFlagWaitList = (void *)OSFlagFreeList; /* Return group to free list           */
   \   0000006C   ........           LDR.W    R0,??DataTable14  ;; OSFlagFreeList
   \   00000070   0168               LDR      R1,[R0, #+0]
   \   00000072   6160               STR      R1,[R4, #+4]
    328                           pgrp->OSFlagFlags    = (OS_FLAGS)0;
   \   00000074   0021               MOVS     R1,#+0
   \   00000076   2181               STRH     R1,[R4, #+8]
    329                           OSFlagFreeList       = pgrp;
   \   00000078   0460               STR      R4,[R0, #+0]
    330                           OS_EXIT_CRITICAL();
   \   0000007A   3846               MOV      R0,R7
   \   0000007C   ........           BL       OS_CPU_SR_Restore
    331                           *perr                = OS_ERR_NONE;
   \   00000080   0020               MOVS     R0,#+0
   \   00000082   2870               STRB     R0,[R5, #+0]
    332                           pgrp_return          = (OS_FLAG_GRP *)0;  /* Event Flag Group has been deleted        */
   \   00000084   BDE8F081           POP      {R4-R8,PC}
    333                       } else {
    334                           OS_EXIT_CRITICAL();
   \                     ??OSFlagDel_9:
   \   00000088   3846               MOV      R0,R7
   \   0000008A   ........           BL       OS_CPU_SR_Restore
    335                           *perr                = OS_ERR_TASK_WAITING;
   \   0000008E   4920               MOVS     R0,#+73
   \   00000090   2870               STRB     R0,[R5, #+0]
    336                           pgrp_return          = pgrp;
   \   00000092   2046               MOV      R0,R4
   \   00000094   BDE8F081           POP      {R4-R8,PC}
    337                       }
    338                       break;
    339          
    340                  case OS_DEL_ALWAYS:                                /* Always delete the event flag group       */
    341                       pnode = (OS_FLAG_NODE *)pgrp->OSFlagWaitList;
   \                     ??OSFlagDel_7:
   \   00000098   0646               MOV      R6,R0
   \   0000009A   04E0               B.N      ??OSFlagDel_10
    342                       while (pnode != (OS_FLAG_NODE *)0) {          /* Ready ALL tasks waiting for flags        */
    343                           (void)OS_FlagTaskRdy(pnode, (OS_FLAGS)0);
   \                     ??OSFlagDel_11:
   \   0000009C   0021               MOVS     R1,#+0
   \   0000009E   3046               MOV      R0,R6
   \   000000A0   ........           BL       OS_FlagTaskRdy
    344                           pnode = (OS_FLAG_NODE *)pnode->OSFlagNodeNext;
   \   000000A4   3668               LDR      R6,[R6, #+0]
    345                       }
   \                     ??OSFlagDel_10:
   \   000000A6   002E               CMP      R6,#+0
   \   000000A8   F8D1               BNE.N    ??OSFlagDel_11
    346          #if OS_FLAG_NAME_SIZE > 1
    347                       pgrp->OSFlagName[0]  = '?';                   /* Unknown name                             */
   \   000000AA   3F20               MOVS     R0,#+63
   \   000000AC   A072               STRB     R0,[R4, #+10]
    348                       pgrp->OSFlagName[1]  = OS_ASCII_NUL;
   \   000000AE   0020               MOVS     R0,#+0
   \   000000B0   E072               STRB     R0,[R4, #+11]
    349          #endif
    350                       pgrp->OSFlagType     = OS_EVENT_TYPE_UNUSED;
   \   000000B2   2070               STRB     R0,[R4, #+0]
    351                       pgrp->OSFlagWaitList = (void *)OSFlagFreeList;/* Return group to free list                */
   \   000000B4   ........           LDR.W    R0,??DataTable14  ;; OSFlagFreeList
   \   000000B8   0168               LDR      R1,[R0, #+0]
   \   000000BA   6160               STR      R1,[R4, #+4]
    352                       pgrp->OSFlagFlags    = (OS_FLAGS)0;
   \   000000BC   0021               MOVS     R1,#+0
   \   000000BE   2181               STRH     R1,[R4, #+8]
    353                       OSFlagFreeList       = pgrp;
   \   000000C0   0460               STR      R4,[R0, #+0]
    354                       OS_EXIT_CRITICAL();
   \   000000C2   3846               MOV      R0,R7
   \   000000C4   ........           BL       OS_CPU_SR_Restore
    355                       if (tasks_waiting == OS_TRUE) {               /* Reschedule only if task(s) were waiting  */
   \   000000C8   B8F1010F           CMP      R8,#+1
   \   000000CC   01D1               BNE.N    ??OSFlagDel_12
    356                           OS_Sched();                               /* Find highest priority task ready to run  */
   \   000000CE   ........           BL       OS_Sched
    357                       }
    358                       *perr = OS_ERR_NONE;
   \                     ??OSFlagDel_12:
   \   000000D2   0020               MOVS     R0,#+0
   \   000000D4   2870               STRB     R0,[R5, #+0]
    359                       pgrp_return          = (OS_FLAG_GRP *)0;      /* Event Flag Group has been deleted        */
   \   000000D6   BDE8F081           POP      {R4-R8,PC}
    360                       break;
    361          
    362                  default:
    363                       OS_EXIT_CRITICAL();
   \                     ??OSFlagDel_8:
   \   000000DA   3846               MOV      R0,R7
   \   000000DC   ........           BL       OS_CPU_SR_Restore
    364                       *perr                = OS_ERR_INVALID_OPT;
   \   000000E0   0720               MOVS     R0,#+7
   \   000000E2   2870               STRB     R0,[R5, #+0]
    365                       pgrp_return          = pgrp;
   \   000000E4   2046               MOV      R0,R4
    366                       break;
    367              }
    368              return (pgrp_return);
   \                     ??OSFlagDel_0:
   \   000000E6   BDE8F081           POP      {R4-R8,PC}       ;; return
    369          }
    370          #endif
    371          /*$PAGE*/
    372          /*
    373          *********************************************************************************************************
    374          *                                 GET THE NAME OF AN EVENT FLAG GROUP
    375          *
    376          * Description: This function is used to obtain the name assigned to an event flag group
    377          *
    378          * Arguments  : pgrp      is a pointer to the event flag group.
    379          *
    380          *              pname     is a pointer to an ASCII string that will receive the name of the event flag
    381          *                        group.  The string must be able to hold at least OS_FLAG_NAME_SIZE characters.
    382          *
    383          *              perr      is a pointer to an error code that can contain one of the following values:
    384          *
    385          *                        OS_ERR_NONE                if the requested task is resumed
    386          *                        OS_ERR_EVENT_TYPE          if 'pevent' is not pointing to an event flag group
    387          *                        OS_ERR_PNAME_NULL          You passed a NULL pointer for 'pname'
    388          *                        OS_ERR_FLAG_INVALID_PGRP   if you passed a NULL pointer for 'pgrp'
    389          *                        OS_ERR_NAME_GET_ISR        if you called this function from an ISR
    390          *
    391          * Returns    : The length of the string or 0 if the 'pgrp' is a NULL pointer.
    392          *********************************************************************************************************
    393          */
    394          
    395          #if OS_FLAG_NAME_SIZE > 1

   \                                 In section .text, align 2, keep-with-next
    396          INT8U  OSFlagNameGet (OS_FLAG_GRP *pgrp, INT8U *pname, INT8U *perr)
    397          {
   \                     OSFlagNameGet:
   \   00000000   F8B5               PUSH     {R3-R7,LR}
   \   00000002   0546               MOV      R5,R0
   \   00000004   0E46               MOV      R6,R1
   \   00000006   1400               MOVS     R4,R2
    398              INT8U      len;
    399          #if OS_CRITICAL_METHOD == 3                      /* Allocate storage for CPU status register           */
    400              OS_CPU_SR  cpu_sr = 0;
    401          #endif
    402          
    403          
    404          
    405          #if OS_ARG_CHK_EN > 0
    406              if (perr == (INT8U *)0) {                    /* Validate 'perr'                                    */
   \   00000008   01D1               BNE.N    ??OSFlagNameGet_0
    407                  return (0);
   \   0000000A   0020               MOVS     R0,#+0
   \   0000000C   F2BD               POP      {R1,R4-R7,PC}
    408              }
    409              if (pgrp == (OS_FLAG_GRP *)0) {              /* Is 'pgrp' a NULL pointer?                          */
   \                     ??OSFlagNameGet_0:
   \   0000000E   002D               CMP      R5,#+0
   \   00000010   03D1               BNE.N    ??OSFlagNameGet_1
    410                  *perr = OS_ERR_FLAG_INVALID_PGRP;
   \   00000012   6E20               MOVS     R0,#+110
   \   00000014   2070               STRB     R0,[R4, #+0]
    411                  return (0);
   \   00000016   0020               MOVS     R0,#+0
   \   00000018   F2BD               POP      {R1,R4-R7,PC}
    412              }
    413              if (pname == (INT8U *)0) {                   /* Is 'pname' a NULL pointer?                         */
   \                     ??OSFlagNameGet_1:
   \   0000001A   002E               CMP      R6,#+0
   \   0000001C   03D1               BNE.N    ??OSFlagNameGet_2
    414                  *perr = OS_ERR_PNAME_NULL;
   \   0000001E   0C20               MOVS     R0,#+12
   \   00000020   2070               STRB     R0,[R4, #+0]
    415                  return (0);
   \   00000022   0020               MOVS     R0,#+0
   \   00000024   F2BD               POP      {R1,R4-R7,PC}
    416              }
    417          #endif
    418              if (OSIntNesting > 0) {                      /* See if trying to call from an ISR                  */
   \                     ??OSFlagNameGet_2:
   \   00000026   ....               LDR.N    R0,??DataTable7  ;; OSIntNesting
   \   00000028   0078               LDRB     R0,[R0, #+0]
   \   0000002A   0028               CMP      R0,#+0
   \   0000002C   03D0               BEQ.N    ??OSFlagNameGet_3
    419                  *perr = OS_ERR_NAME_GET_ISR;
   \   0000002E   1120               MOVS     R0,#+17
   \   00000030   2070               STRB     R0,[R4, #+0]
    420                  return (0);
   \   00000032   0020               MOVS     R0,#+0
   \   00000034   F2BD               POP      {R1,R4-R7,PC}
    421              }
    422              OS_ENTER_CRITICAL();
   \                     ??OSFlagNameGet_3:
   \   00000036   ........           BL       OS_CPU_SR_Save
   \   0000003A   0746               MOV      R7,R0
    423              if (pgrp->OSFlagType != OS_EVENT_TYPE_FLAG) {
   \   0000003C   2878               LDRB     R0,[R5, #+0]
   \   0000003E   0528               CMP      R0,#+5
   \   00000040   06D0               BEQ.N    ??OSFlagNameGet_4
    424                  OS_EXIT_CRITICAL();
   \   00000042   3846               MOV      R0,R7
   \   00000044   ........           BL       OS_CPU_SR_Restore
    425                  *perr = OS_ERR_EVENT_TYPE;
   \   00000048   0120               MOVS     R0,#+1
   \   0000004A   2070               STRB     R0,[R4, #+0]
    426                  return (0);
   \   0000004C   0020               MOVS     R0,#+0
   \   0000004E   F2BD               POP      {R1,R4-R7,PC}
    427              }
    428              len   = OS_StrCopy(pname, pgrp->OSFlagName); /* Copy name from OS_FLAG_GRP                         */
   \                     ??OSFlagNameGet_4:
   \   00000050   05F10A01           ADD      R1,R5,#+10
   \   00000054   3046               MOV      R0,R6
   \   00000056   ........           BL       OS_StrCopy
   \   0000005A   0546               MOV      R5,R0
    429              OS_EXIT_CRITICAL();
   \   0000005C   3846               MOV      R0,R7
   \   0000005E   ........           BL       OS_CPU_SR_Restore
    430              *perr = OS_ERR_NONE;
   \   00000062   0020               MOVS     R0,#+0
   \   00000064   2070               STRB     R0,[R4, #+0]
    431              return (len);
   \   00000066   2846               MOV      R0,R5
   \   00000068   F2BD               POP      {R1,R4-R7,PC}    ;; return
    432          }
    433          #endif
    434          
    435          /*$PAGE*/
    436          /*
    437          *********************************************************************************************************
    438          *                                 ASSIGN A NAME TO AN EVENT FLAG GROUP
    439          *
    440          * Description: This function assigns a name to an event flag group.
    441          *
    442          * Arguments  : pgrp      is a pointer to the event flag group.
    443          *
    444          *              pname     is a pointer to an ASCII string that will be used as the name of the event flag
    445          *                        group.  The string must be able to hold at least OS_FLAG_NAME_SIZE characters.
    446          *
    447          *              perr      is a pointer to an error code that can contain one of the following values:
    448          *
    449          *                        OS_ERR_NONE                if the requested task is resumed
    450          *                        OS_ERR_EVENT_TYPE          if 'pevent' is not pointing to an event flag group
    451          *                        OS_ERR_PNAME_NULL          You passed a NULL pointer for 'pname'
    452          *                        OS_ERR_FLAG_INVALID_PGRP   if you passed a NULL pointer for 'pgrp'
    453          *                        OS_ERR_NAME_SET_ISR        if you called this function from an ISR
    454          *
    455          * Returns    : None
    456          *********************************************************************************************************
    457          */
    458          
    459          #if OS_FLAG_NAME_SIZE > 1

   \                                 In section .text, align 2, keep-with-next
    460          void  OSFlagNameSet (OS_FLAG_GRP *pgrp, INT8U *pname, INT8U *perr)
    461          {
   \                     OSFlagNameSet:
   \   00000000   F8B5               PUSH     {R3-R7,LR}
   \   00000002   0646               MOV      R6,R0
   \   00000004   0C46               MOV      R4,R1
   \   00000006   1500               MOVS     R5,R2
    462              INT8U      len;
    463          #if OS_CRITICAL_METHOD == 3                      /* Allocate storage for CPU status register           */
    464              OS_CPU_SR  cpu_sr = 0;
    465          #endif
    466          
    467          
    468          
    469          #if OS_ARG_CHK_EN > 0
    470              if (perr == (INT8U *)0) {                    /* Validate 'perr'                                    */
   \   00000008   31D0               BEQ.N    ??OSFlagNameSet_0
    471                  return;
    472              }
    473              if (pgrp == (OS_FLAG_GRP *)0) {              /* Is 'pgrp' a NULL pointer?                          */
   \   0000000A   002E               CMP      R6,#+0
   \   0000000C   02D1               BNE.N    ??OSFlagNameSet_1
    474                  *perr = OS_ERR_FLAG_INVALID_PGRP;
   \   0000000E   6E20               MOVS     R0,#+110
   \   00000010   2870               STRB     R0,[R5, #+0]
    475                  return;
   \   00000012   F1BD               POP      {R0,R4-R7,PC}
    476              }
    477              if (pname == (INT8U *)0) {                   /* Is 'pname' a NULL pointer?                         */
   \                     ??OSFlagNameSet_1:
   \   00000014   002C               CMP      R4,#+0
   \   00000016   02D1               BNE.N    ??OSFlagNameSet_2
    478                  *perr = OS_ERR_PNAME_NULL;
   \   00000018   0C20               MOVS     R0,#+12
   \   0000001A   2870               STRB     R0,[R5, #+0]
    479                  return;
   \   0000001C   F1BD               POP      {R0,R4-R7,PC}
    480              }
    481          #endif
    482              if (OSIntNesting > 0) {                      /* See if trying to call from an ISR                  */
   \                     ??OSFlagNameSet_2:
   \   0000001E   ....               LDR.N    R0,??DataTable7  ;; OSIntNesting
   \   00000020   0078               LDRB     R0,[R0, #+0]
   \   00000022   0028               CMP      R0,#+0
   \   00000024   02D0               BEQ.N    ??OSFlagNameSet_3
    483                  *perr = OS_ERR_NAME_SET_ISR;
   \   00000026   1220               MOVS     R0,#+18
   \   00000028   2870               STRB     R0,[R5, #+0]
    484                  return;
   \   0000002A   F1BD               POP      {R0,R4-R7,PC}
    485              }
    486              OS_ENTER_CRITICAL();
   \                     ??OSFlagNameSet_3:
   \   0000002C   ........           BL       OS_CPU_SR_Save
   \   00000030   0746               MOV      R7,R0
    487              if (pgrp->OSFlagType != OS_EVENT_TYPE_FLAG) {
   \   00000032   3078               LDRB     R0,[R6, #+0]
   \   00000034   0528               CMP      R0,#+5
   \   00000036   05D0               BEQ.N    ??OSFlagNameSet_4
    488                  OS_EXIT_CRITICAL();
   \   00000038   3846               MOV      R0,R7
   \   0000003A   ........           BL       OS_CPU_SR_Restore
    489                  *perr = OS_ERR_EVENT_TYPE;
   \   0000003E   0120               MOVS     R0,#+1
   \   00000040   2870               STRB     R0,[R5, #+0]
    490                  return;
   \   00000042   F1BD               POP      {R0,R4-R7,PC}
    491              }
    492              len = OS_StrLen(pname);                      /* Can we fit the string in the storage area?         */
   \                     ??OSFlagNameSet_4:
   \   00000044   2046               MOV      R0,R4
   \   00000046   ........           BL       OS_StrLen
    493              if (len > (OS_FLAG_NAME_SIZE - 1)) {         /* No                                                 */
   \   0000004A   1028               CMP      R0,#+16
   \   0000004C   05D3               BCC.N    ??OSFlagNameSet_5
    494                  OS_EXIT_CRITICAL();
   \   0000004E   3846               MOV      R0,R7
   \   00000050   ........           BL       OS_CPU_SR_Restore
    495                  *perr = OS_ERR_FLAG_NAME_TOO_LONG;
   \   00000054   7320               MOVS     R0,#+115
   \   00000056   2870               STRB     R0,[R5, #+0]
    496                  return;
   \   00000058   F1BD               POP      {R0,R4-R7,PC}
    497              }
    498              (void)OS_StrCopy(pgrp->OSFlagName, pname);   /* Yes, copy name from OS_FLAG_GRP                    */
   \                     ??OSFlagNameSet_5:
   \   0000005A   2146               MOV      R1,R4
   \   0000005C   06F10A00           ADD      R0,R6,#+10
   \   00000060   ........           BL       OS_StrCopy
    499              OS_EXIT_CRITICAL();
   \   00000064   3846               MOV      R0,R7
   \   00000066   ........           BL       OS_CPU_SR_Restore
    500              *perr = OS_ERR_NONE;
   \   0000006A   0020               MOVS     R0,#+0
   \   0000006C   2870               STRB     R0,[R5, #+0]
    501              return;
   \                     ??OSFlagNameSet_0:
   \   0000006E   F1BD               POP      {R0,R4-R7,PC}    ;; return
    502          }
    503          #endif
    504          
    505          /*$PAGE*/
    506          /*
    507          *********************************************************************************************************
    508          *                                        WAIT ON AN EVENT FLAG GROUP
    509          *
    510          * Description: This function is called to wait for a combination of bits to be set in an event flag
    511          *              group.  Your application can wait for ANY bit to be set or ALL bits to be set.
    512          *
    513          * Arguments  : pgrp          is a pointer to the desired event flag group.
    514          *
    515          *              flags         Is a bit pattern indicating which bit(s) (i.e. flags) you wish to wait for.
    516          *                            The bits you want are specified by setting the corresponding bits in
    517          *                            'flags'.  e.g. if your application wants to wait for bits 0 and 1 then
    518          *                            'flags' would contain 0x03.
    519          *
    520          *              wait_type     specifies whether you want ALL bits to be set or ANY of the bits to be set.
    521          *                            You can specify the following argument:
    522          *
    523          *                            OS_FLAG_WAIT_CLR_ALL   You will wait for ALL bits in 'mask' to be clear (0)
    524          *                            OS_FLAG_WAIT_SET_ALL   You will wait for ALL bits in 'mask' to be set   (1)
    525          *                            OS_FLAG_WAIT_CLR_ANY   You will wait for ANY bit  in 'mask' to be clear (0)
    526          *                            OS_FLAG_WAIT_SET_ANY   You will wait for ANY bit  in 'mask' to be set   (1)
    527          *
    528          *                            NOTE: Add OS_FLAG_CONSUME if you want the event flag to be 'consumed' by
    529          *                                  the call.  Example, to wait for any flag in a group AND then clear
    530          *                                  the flags that are present, set 'wait_type' to:
    531          *
    532          *                                  OS_FLAG_WAIT_SET_ANY + OS_FLAG_CONSUME
    533          *
    534          *              timeout       is an optional timeout (in clock ticks) that your task will wait for the
    535          *                            desired bit combination.  If you specify 0, however, your task will wait
    536          *                            forever at the specified event flag group or, until a message arrives.
    537          *
    538          *              perr          is a pointer to an error code and can be:
    539          *                            OS_ERR_NONE               The desired bits have been set within the specified
    540          *                                                      'timeout'.
    541          *                            OS_ERR_PEND_ISR           If you tried to PEND from an ISR
    542          *                            OS_ERR_FLAG_INVALID_PGRP  If 'pgrp' is a NULL pointer.
    543          *                            OS_ERR_EVENT_TYPE         You are not pointing to an event flag group
    544          *                            OS_ERR_TIMEOUT            The bit(s) have not been set in the specified
    545          *                                                      'timeout'.
    546          *                            OS_ERR_PEND_ABORT         The wait on the flag was aborted.
    547          *                            OS_ERR_FLAG_WAIT_TYPE     You didn't specify a proper 'wait_type' argument.
    548          *
    549          * Returns    : The flags in the event flag group that made the task ready or, 0 if a timeout or an error
    550          *              occurred.
    551          *
    552          * Called from: Task ONLY
    553          *
    554          * Note(s)    : 1) IMPORTANT, the behavior of this function has changed from PREVIOUS versions.  The
    555          *                 function NOW returns the flags that were ready INSTEAD of the current state of the
    556          *                 event flags.
    557          *********************************************************************************************************
    558          */
    559          

   \                                 In section .text, align 4, keep-with-next
    560          OS_FLAGS  OSFlagPend (OS_FLAG_GRP *pgrp, OS_FLAGS flags, INT8U wait_type, INT16U timeout, INT8U *perr)
    561          {
   \                     OSFlagPend:
   \   00000000   2DE9F84F           PUSH     {R3-R11,LR}
   \   00000004   86B0               SUB      SP,SP,#+24
   \   00000006   0446               MOV      R4,R0
   \   00000008   8846               MOV      R8,R1
   \   0000000A   9146               MOV      R9,R2
   \   0000000C   109D               LDR      R5,[SP, #+64]
    562              OS_FLAG_NODE  node;
    563              OS_FLAGS      flags_rdy;
    564              INT8U         result;
    565              INT8U         pend_stat;
    566              BOOLEAN       consume;
    567          #if OS_CRITICAL_METHOD == 3                                /* Allocate storage for CPU status register */
    568              OS_CPU_SR     cpu_sr = 0;
    569          #endif
    570          
    571          
    572          
    573          #if OS_ARG_CHK_EN > 0
    574              if (perr == (INT8U *)0) {                              /* Validate 'perr'                          */
   \   0000000E   002D               CMP      R5,#+0
   \   00000010   03D1               BNE.N    ??OSFlagPend_0
    575                  return ((OS_FLAGS)0);
   \                     ??OSFlagPend_1:
   \   00000012   0020               MOVS     R0,#+0
   \   00000014   07B0               ADD      SP,SP,#+28
   \   00000016   BDE8F08F           POP      {R4-R11,PC}
    576              }
    577              if (pgrp == (OS_FLAG_GRP *)0) {                        /* Validate 'pgrp'                          */
   \                     ??OSFlagPend_0:
   \   0000001A   002C               CMP      R4,#+0
   \   0000001C   05D1               BNE.N    ??OSFlagPend_2
    578                  *perr = OS_ERR_FLAG_INVALID_PGRP;
   \   0000001E   6E20               MOVS     R0,#+110
   \   00000020   2870               STRB     R0,[R5, #+0]
    579                  return ((OS_FLAGS)0);
   \   00000022   0020               MOVS     R0,#+0
   \   00000024   07B0               ADD      SP,SP,#+28
   \   00000026   BDE8F08F           POP      {R4-R11,PC}
    580              }
    581          #endif
    582              if (OSIntNesting > 0) {                                /* See if called from ISR ...               */
   \                     ??OSFlagPend_2:
   \   0000002A   ....               LDR.N    R0,??DataTable7  ;; OSIntNesting
   \   0000002C   0078               LDRB     R0,[R0, #+0]
   \   0000002E   0028               CMP      R0,#+0
   \   00000030   05D0               BEQ.N    ??OSFlagPend_3
    583                  *perr = OS_ERR_PEND_ISR;                           /* ... can't PEND from an ISR               */
   \   00000032   0220               MOVS     R0,#+2
   \   00000034   2870               STRB     R0,[R5, #+0]
    584                  return ((OS_FLAGS)0);
   \   00000036   0020               MOVS     R0,#+0
   \   00000038   07B0               ADD      SP,SP,#+28
   \   0000003A   BDE8F08F           POP      {R4-R11,PC}
    585              }
    586              if (OSLockNesting > 0) {                               /* See if called with scheduler locked ...  */
   \                     ??OSFlagPend_3:
   \   0000003E   5A48               LDR.N    R0,??OSFlagPend_4  ;; OSLockNesting
   \   00000040   0078               LDRB     R0,[R0, #+0]
   \   00000042   0028               CMP      R0,#+0
   \   00000044   05D0               BEQ.N    ??OSFlagPend_5
    587                  *perr = OS_ERR_PEND_LOCKED;                        /* ... can't PEND when locked               */
   \   00000046   0D20               MOVS     R0,#+13
   \   00000048   2870               STRB     R0,[R5, #+0]
    588                  return ((OS_FLAGS)0);
   \   0000004A   0020               MOVS     R0,#+0
   \   0000004C   07B0               ADD      SP,SP,#+28
   \   0000004E   BDE8F08F           POP      {R4-R11,PC}
    589              }
    590              if (pgrp->OSFlagType != OS_EVENT_TYPE_FLAG) {          /* Validate event block type                */
   \                     ??OSFlagPend_5:
   \   00000052   2078               LDRB     R0,[R4, #+0]
   \   00000054   0528               CMP      R0,#+5
   \   00000056   05D0               BEQ.N    ??OSFlagPend_6
    591                  *perr = OS_ERR_EVENT_TYPE;
   \   00000058   0120               MOVS     R0,#+1
   \   0000005A   2870               STRB     R0,[R5, #+0]
    592                  return ((OS_FLAGS)0);
   \   0000005C   0020               MOVS     R0,#+0
   \   0000005E   07B0               ADD      SP,SP,#+28
   \   00000060   BDE8F08F           POP      {R4-R11,PC}
    593              }
    594              result = (INT8U)(wait_type & OS_FLAG_CONSUME);
    595              if (result != (INT8U)0) {                             /* See if we need to consume the flags      */
   \                     ??OSFlagPend_6:
   \   00000064   19F0800F           TST      R9,#0x80
   \   00000068   03D0               BEQ.N    ??OSFlagPend_7
    596                  wait_type &= ~(INT8U)OS_FLAG_CONSUME;
   \   0000006A   09F07F09           AND      R9,R9,#0x7F
    597                  consume    = OS_TRUE;
   \   0000006E   0126               MOVS     R6,#+1
   \   00000070   00E0               B.N      ??OSFlagPend_8
    598              } else {
    599                  consume    = OS_FALSE;
   \                     ??OSFlagPend_7:
   \   00000072   0026               MOVS     R6,#+0
    600              }
    601          /*$PAGE*/
    602              OS_ENTER_CRITICAL();
   \                     ??OSFlagPend_8:
   \   00000074   ........           BL       OS_CPU_SR_Save
   \   00000078   0746               MOV      R7,R0
    603              switch (wait_type) {
   \   0000007A   CB46               MOV      R11,R9
   \   0000007C   BBF1000F           CMP      R11,#+0
   \   00000080   52D0               BEQ.N    ??OSFlagPend_9
   \   00000082   BBF1020F           CMP      R11,#+2
   \   00000086   04D0               BEQ.N    ??OSFlagPend_10
   \   00000088   5CD3               BCC.N    ??OSFlagPend_11
   \   0000008A   BBF1030F           CMP      R11,#+3
   \   0000008E   1AD0               BEQ.N    ??OSFlagPend_12
   \   00000090   5EE0               B.N      ??OSFlagPend_13
    604                  case OS_FLAG_WAIT_SET_ALL:                         /* See if all required flags are set        */
    605                       flags_rdy = (OS_FLAGS)(pgrp->OSFlagFlags & flags);   /* Extract only the bits we want     */
   \                     ??OSFlagPend_10:
   \   00000092   2089               LDRH     R0,[R4, #+8]
   \   00000094   08EA000A           AND      R10,R8,R0
    606                       if (flags_rdy == flags) {                     /* Must match ALL the bits that we want     */
   \   00000098   5046               MOV      R0,R10
   \   0000009A   4045               CMP      R0,R8
   \   0000009C   17D1               BNE.N    ??OSFlagPend_14
    607                           if (consume == OS_TRUE) {                 /* See if we need to consume the flags      */
   \                     ??OSFlagPend_15:
   \   0000009E   012E               CMP      R6,#+1
   \   000000A0   04D1               BNE.N    ??OSFlagPend_16
    608                               pgrp->OSFlagFlags &= ~flags_rdy;      /* Clear ONLY the flags that we wanted      */
   \   000000A2   2089               LDRH     R0,[R4, #+8]
   \   000000A4   6FEA0A01           MVN      R1,R10
   \   000000A8   0840               ANDS     R0,R1,R0
   \   000000AA   2081               STRH     R0,[R4, #+8]
    609                           }
    610                           OSTCBCur->OSTCBFlagsRdy = flags_rdy;      /* Save flags that were ready               */
   \                     ??OSFlagPend_16:
   \   000000AC   ....               LDR.N    R0,??DataTable11  ;; OSTCBCur
   \   000000AE   0068               LDR      R0,[R0, #+0]
   \   000000B0   A0F82CA0           STRH     R10,[R0, #+44]
    611                           OS_EXIT_CRITICAL();                       /* Yes, condition met, return to caller     */
   \   000000B4   3846               MOV      R0,R7
   \   000000B6   ........           BL       OS_CPU_SR_Restore
    612                           *perr                   = OS_ERR_NONE;
   \   000000BA   0020               MOVS     R0,#+0
   \   000000BC   2870               STRB     R0,[R5, #+0]
    613                           return (flags_rdy);
   \   000000BE   5046               MOV      R0,R10
   \   000000C0   07B0               ADD      SP,SP,#+28
   \   000000C2   BDE8F08F           POP      {R4-R11,PC}
    614                       } else {                                      /* Block task until events occur or timeout */
    615                           OS_FlagBlock(pgrp, &node, flags, wait_type, timeout);
    616                           OS_EXIT_CRITICAL();
    617                       }
    618                       break;
    619          
    620                  case OS_FLAG_WAIT_SET_ANY:
    621                       flags_rdy = (OS_FLAGS)(pgrp->OSFlagFlags & flags);    /* Extract only the bits we want    */
   \                     ??OSFlagPend_12:
   \   000000C6   2089               LDRH     R0,[R4, #+8]
   \   000000C8   18EA000A           ANDS     R10,R8,R0
    622                       if (flags_rdy != (OS_FLAGS)0) {               /* See if any flag set                      */
   \   000000CC   E7D1               BNE.N    ??OSFlagPend_15
   \                     ??OSFlagPend_14:
   \   000000CE   BDF81800           LDRH     R0,[SP, #+24]
   \   000000D2   01B5               PUSH     {R0,LR}
   \   000000D4   4B46               MOV      R3,R9
   \   000000D6   4246               MOV      R2,R8
   \   000000D8   02A9               ADD      R1,SP,#+8
   \   000000DA   2046               MOV      R0,R4
   \   000000DC   ........           BL       OS_FlagBlock
   \   000000E0   02B0               ADD      SP,SP,#+8
   \   000000E2   3846               MOV      R0,R7
   \   000000E4   ........           BL       OS_CPU_SR_Restore
    623                           if (consume == OS_TRUE) {                 /* See if we need to consume the flags      */
    624                               pgrp->OSFlagFlags &= ~flags_rdy;      /* Clear ONLY the flags that we got         */
    625                           }
    626                           OSTCBCur->OSTCBFlagsRdy = flags_rdy;      /* Save flags that were ready               */
    627                           OS_EXIT_CRITICAL();                       /* Yes, condition met, return to caller     */
    628                           *perr                   = OS_ERR_NONE;
    629                           return (flags_rdy);
    630                       } else {                                      /* Block task until events occur or timeout */
    631                           OS_FlagBlock(pgrp, &node, flags, wait_type, timeout);
    632                           OS_EXIT_CRITICAL();
    633                       }
    634                       break;
    635          
    636          #if OS_FLAG_WAIT_CLR_EN > 0
    637                  case OS_FLAG_WAIT_CLR_ALL:                         /* See if all required flags are cleared    */
    638                       flags_rdy = (OS_FLAGS)(~pgrp->OSFlagFlags & flags);  /* Extract only the bits we want     */
    639                       if (flags_rdy == flags) {                     /* Must match ALL the bits that we want     */
    640                           if (consume == OS_TRUE) {                 /* See if we need to consume the flags      */
    641                               pgrp->OSFlagFlags |= flags_rdy;       /* Set ONLY the flags that we wanted        */
    642                           }
    643                           OSTCBCur->OSTCBFlagsRdy = flags_rdy;      /* Save flags that were ready               */
    644                           OS_EXIT_CRITICAL();                       /* Yes, condition met, return to caller     */
    645                           *perr                   = OS_ERR_NONE;
    646                           return (flags_rdy);
    647                       } else {                                      /* Block task until events occur or timeout */
    648                           OS_FlagBlock(pgrp, &node, flags, wait_type, timeout);
    649                           OS_EXIT_CRITICAL();
    650                       }
    651                       break;
    652          
    653                  case OS_FLAG_WAIT_CLR_ANY:
    654                       flags_rdy = (OS_FLAGS)(~pgrp->OSFlagFlags & flags); /* Extract only the bits we want      */
    655                       if (flags_rdy != (OS_FLAGS)0) {               /* See if any flag cleared                  */
    656                           if (consume == OS_TRUE) {                 /* See if we need to consume the flags      */
    657                               pgrp->OSFlagFlags |= flags_rdy;       /* Set ONLY the flags that we got           */
    658                           }
    659                           OSTCBCur->OSTCBFlagsRdy = flags_rdy;      /* Save flags that were ready               */
    660                           OS_EXIT_CRITICAL();                       /* Yes, condition met, return to caller     */
    661                           *perr                   = OS_ERR_NONE;
    662                           return (flags_rdy);
    663                       } else {                                      /* Block task until events occur or timeout */
    664                           OS_FlagBlock(pgrp, &node, flags, wait_type, timeout);
    665                           OS_EXIT_CRITICAL();
    666                       }
    667                       break;
    668          #endif
    669          
    670                  default:
    671                       OS_EXIT_CRITICAL();
    672                       flags_rdy = (OS_FLAGS)0;
    673                       *perr      = OS_ERR_FLAG_WAIT_TYPE;
    674                       return (flags_rdy);
    675              }
    676          /*$PAGE*/
    677              OS_Sched();                                            /* Find next HPT ready to run               */
   \   000000E8   ........           BL       OS_Sched
    678              OS_ENTER_CRITICAL();
   \   000000EC   ........           BL       OS_CPU_SR_Save
   \   000000F0   0746               MOV      R7,R0
    679              if (OSTCBCur->OSTCBStatPend != OS_STAT_PEND_OK) {      /* Have we timed-out or aborted?            */
   \   000000F2   ........           LDR.W    R8,??DataTable11  ;; OSTCBCur
   \   000000F6   D8F80000           LDR      R0,[R8, #+0]
   \   000000FA   00F12C01           ADD      R1,R0,#+44
   \   000000FE   4A79               LDRB     R2,[R1, #+5]
   \   00000100   002A               CMP      R2,#+0
   \   00000102   2ED1               BNE.N    ??OSFlagPend_17
    680                  pend_stat                = OSTCBCur->OSTCBStatPend;
    681                  OSTCBCur->OSTCBStatPend  = OS_STAT_PEND_OK;
    682                  OS_FlagUnlink(&node);
    683                  OSTCBCur->OSTCBStat      = OS_STAT_RDY;            /* Yes, make task ready-to-run              */
    684                  OS_EXIT_CRITICAL();
    685                  flags_rdy                = (OS_FLAGS)0;
    686                  switch (pend_stat) {
    687                      case OS_STAT_PEND_ABORT:
    688                           *perr = OS_ERR_PEND_ABORT;                 /* Indicate that we aborted   waiting       */
    689                           break;
    690          
    691                      case OS_STAT_PEND_TO:
    692                      default:
    693                           *perr = OS_ERR_TIMEOUT;                    /* Indicate that we timed-out waiting       */
    694                           break;
    695                  }
    696                  return (flags_rdy);
    697              }
    698              flags_rdy = OSTCBCur->OSTCBFlagsRdy;
   \   00000104   B0F82CA0           LDRH     R10,[R0, #+44]
    699              if (consume == OS_TRUE) {                              /* See if we need to consume the flags      */
   \   00000108   012E               CMP      R6,#+1
   \   0000010A   44D1               BNE.N    ??OSFlagPend_18
    700                  switch (wait_type) {
   \   0000010C   BBF1010F           CMP      R11,#+1
   \   00000110   3DD9               BLS.N    ??OSFlagPend_19
   \   00000112   ABF1020B           SUB      R11,R11,#+2
   \   00000116   BBF1010F           CMP      R11,#+1
   \   0000011A   19D8               BHI.N    ??OSFlagPend_13
    701                      case OS_FLAG_WAIT_SET_ALL:
    702                      case OS_FLAG_WAIT_SET_ANY:                     /* Clear ONLY the flags we got              */
    703                           pgrp->OSFlagFlags &= ~flags_rdy;
   \   0000011C   2089               LDRH     R0,[R4, #+8]
   \   0000011E   6FEA0A01           MVN      R1,R10
   \   00000122   0840               ANDS     R0,R1,R0
   \   00000124   2081               STRH     R0,[R4, #+8]
   \   00000126   36E0               B.N      ??OSFlagPend_18
   \                     ??OSFlagPend_9:
   \   00000128   2089               LDRH     R0,[R4, #+8]
   \   0000012A   C043               MVNS     R0,R0
   \   0000012C   08EA000A           AND      R10,R8,R0
   \   00000130   5046               MOV      R0,R10
   \   00000132   4045               CMP      R0,R8
   \   00000134   CBD1               BNE.N    ??OSFlagPend_14
   \                     ??OSFlagPend_20:
   \   00000136   012E               CMP      R6,#+1
   \   00000138   B8D1               BNE.N    ??OSFlagPend_16
   \   0000013A   2089               LDRH     R0,[R4, #+8]
   \   0000013C   4AEA0000           ORR      R0,R10,R0
   \   00000140   2081               STRH     R0,[R4, #+8]
   \   00000142   B3E7               B.N      ??OSFlagPend_16
   \                     ??OSFlagPend_11:
   \   00000144   2089               LDRH     R0,[R4, #+8]
   \   00000146   C043               MVNS     R0,R0
   \   00000148   18EA000A           ANDS     R10,R8,R0
   \   0000014C   F3D1               BNE.N    ??OSFlagPend_20
   \   0000014E   BEE7               B.N      ??OSFlagPend_14
   \                     ??OSFlagPend_13:
   \   00000150   3846               MOV      R0,R7
   \   00000152   ........           BL       OS_CPU_SR_Restore
   \   00000156   6F20               MOVS     R0,#+111
   \   00000158   2870               STRB     R0,[R5, #+0]
   \   0000015A   0020               MOVS     R0,#+0
   \   0000015C   07B0               ADD      SP,SP,#+28
   \   0000015E   BDE8F08F           POP      {R4-R11,PC}
   \                     ??OSFlagPend_17:
   \   00000162   1446               MOV      R4,R2
   \   00000164   0020               MOVS     R0,#+0
   \   00000166   4871               STRB     R0,[R1, #+5]
   \   00000168   00A8               ADD      R0,SP,#+0
   \   0000016A   ........           BL       OS_FlagUnlink
   \   0000016E   D8F80000           LDR      R0,[R8, #+0]
   \   00000172   0021               MOVS     R1,#+0
   \   00000174   80F83010           STRB     R1,[R0, #+48]
   \   00000178   3846               MOV      R0,R7
   \   0000017A   ........           BL       OS_CPU_SR_Restore
   \   0000017E   022C               CMP      R4,#+2
   \   00000180   02D1               BNE.N    ??OSFlagPend_21
   \   00000182   0E20               MOVS     R0,#+14
   \   00000184   2870               STRB     R0,[R5, #+0]
   \   00000186   44E7               B.N      ??OSFlagPend_1
   \                     ??OSFlagPend_21:
   \   00000188   0A20               MOVS     R0,#+10
   \   0000018A   2870               STRB     R0,[R5, #+0]
   \   0000018C   41E7               B.N      ??OSFlagPend_1
    704                           break;
    705          
    706          #if OS_FLAG_WAIT_CLR_EN > 0
    707                      case OS_FLAG_WAIT_CLR_ALL:
    708                      case OS_FLAG_WAIT_CLR_ANY:                     /* Set   ONLY the flags we got              */
    709                           pgrp->OSFlagFlags |=  flags_rdy;
   \                     ??OSFlagPend_19:
   \   0000018E   2089               LDRH     R0,[R4, #+8]
   \   00000190   4AEA0000           ORR      R0,R10,R0
   \   00000194   2081               STRH     R0,[R4, #+8]
    710                           break;
    711          #endif
    712                      default:
    713                           OS_EXIT_CRITICAL();
    714                           *perr = OS_ERR_FLAG_WAIT_TYPE;
    715                           return ((OS_FLAGS)0);
    716                  }
    717              }
    718              OS_EXIT_CRITICAL();
   \                     ??OSFlagPend_18:
   \   00000196   3846               MOV      R0,R7
   \   00000198   ........           BL       OS_CPU_SR_Restore
    719              *perr = OS_ERR_NONE;                                   /* Event(s) must have occurred              */
   \   0000019C   0020               MOVS     R0,#+0
   \   0000019E   2870               STRB     R0,[R5, #+0]
    720              return (flags_rdy);
   \   000001A0   5046               MOV      R0,R10
   \   000001A2   07B0               ADD      SP,SP,#+28
   \   000001A4   BDE8F08F           POP      {R4-R11,PC}      ;; return
   \                     ??OSFlagPend_4:
   \   000001A8   ........           DC32     OSLockNesting
    721          }
    722          /*$PAGE*/
    723          /*
    724          *********************************************************************************************************
    725          *                               GET FLAGS WHO CAUSED TASK TO BECOME READY
    726          *
    727          * Description: This function is called to obtain the flags that caused the task to become ready to run.
    728          *              In other words, this function allows you to tell "Who done it!".
    729          *
    730          * Arguments  : None
    731          *
    732          * Returns    : The flags that caused the task to be ready.
    733          *
    734          * Called from: Task ONLY
    735          *********************************************************************************************************
    736          */
    737          

   \                                 In section .text, align 2, keep-with-next
    738          OS_FLAGS  OSFlagPendGetFlagsRdy (void)
    739          {
   \                     OSFlagPendGetFlagsRdy:
   \   00000000   10B5               PUSH     {R4,LR}
    740              OS_FLAGS      flags;
    741          #if OS_CRITICAL_METHOD == 3                                /* Allocate storage for CPU status register */
    742              OS_CPU_SR     cpu_sr = 0;
    743          #endif
    744          
    745          
    746          
    747              OS_ENTER_CRITICAL();
   \   00000002   ........           BL       OS_CPU_SR_Save
    748              flags = OSTCBCur->OSTCBFlagsRdy;
   \   00000006   ....               LDR.N    R1,??DataTable11  ;; OSTCBCur
   \   00000008   0968               LDR      R1,[R1, #+0]
   \   0000000A   8C8D               LDRH     R4,[R1, #+44]
    749              OS_EXIT_CRITICAL();
   \   0000000C   ........           BL       OS_CPU_SR_Restore
    750              return (flags);
   \   00000010   2046               MOV      R0,R4
   \   00000012   10BD               POP      {R4,PC}          ;; return
    751          }
    752          
    753          /*$PAGE*/
    754          /*
    755          *********************************************************************************************************
    756          *                                         POST EVENT FLAG BIT(S)
    757          *
    758          * Description: This function is called to set or clear some bits in an event flag group.  The bits to
    759          *              set or clear are specified by a 'bit mask'.
    760          *
    761          * Arguments  : pgrp          is a pointer to the desired event flag group.
    762          *
    763          *              flags         If 'opt' (see below) is OS_FLAG_SET, each bit that is set in 'flags' will
    764          *                            set the corresponding bit in the event flag group.  e.g. to set bits 0, 4
    765          *                            and 5 you would set 'flags' to:
    766          *
    767          *                                0x31     (note, bit 0 is least significant bit)
    768          *
    769          *                            If 'opt' (see below) is OS_FLAG_CLR, each bit that is set in 'flags' will
    770          *                            CLEAR the corresponding bit in the event flag group.  e.g. to clear bits 0,
    771          *                            4 and 5 you would specify 'flags' as:
    772          *
    773          *                                0x31     (note, bit 0 is least significant bit)
    774          *
    775          *              opt           indicates whether the flags will be:
    776          *                                set     (OS_FLAG_SET) or
    777          *                                cleared (OS_FLAG_CLR)
    778          *
    779          *              perr          is a pointer to an error code and can be:
    780          *                            OS_ERR_NONE                The call was successfull
    781          *                            OS_ERR_FLAG_INVALID_PGRP   You passed a NULL pointer
    782          *                            OS_ERR_EVENT_TYPE          You are not pointing to an event flag group
    783          *                            OS_ERR_FLAG_INVALID_OPT    You specified an invalid option
    784          *
    785          * Returns    : the new value of the event flags bits that are still set.
    786          *
    787          * Called From: Task or ISR
    788          *
    789          * WARNING(s) : 1) The execution time of this function depends on the number of tasks waiting on the event
    790          *                 flag group.
    791          *              2) The amount of time interrupts are DISABLED depends on the number of tasks waiting on
    792          *                 the event flag group.
    793          *********************************************************************************************************
    794          */

   \                                 In section .text, align 2, keep-with-next
    795          OS_FLAGS  OSFlagPost (OS_FLAG_GRP *pgrp, OS_FLAGS flags, INT8U opt, INT8U *perr)
    796          {
   \                     OSFlagPost:
   \   00000000   2DE9F041           PUSH     {R4-R8,LR}
   \   00000004   0746               MOV      R7,R0
   \   00000006   0C46               MOV      R4,R1
   \   00000008   1646               MOV      R6,R2
   \   0000000A   1D00               MOVS     R5,R3
    797              OS_FLAG_NODE *pnode;
    798              BOOLEAN       sched;
    799              OS_FLAGS      flags_cur;
    800              OS_FLAGS      flags_rdy;
    801              BOOLEAN       rdy;
    802          #if OS_CRITICAL_METHOD == 3                          /* Allocate storage for CPU status register       */
    803              OS_CPU_SR     cpu_sr = 0;
    804          #endif
    805          
    806          
    807          
    808          #if OS_ARG_CHK_EN > 0
    809              if (perr == (INT8U *)0) {                        /* Validate 'perr'                                */
   \   0000000C   02D1               BNE.N    ??OSFlagPost_0
    810                  return ((OS_FLAGS)0);
   \   0000000E   0020               MOVS     R0,#+0
   \   00000010   BDE8F081           POP      {R4-R8,PC}
    811              }
    812              if (pgrp == (OS_FLAG_GRP *)0) {                  /* Validate 'pgrp'                                */
   \                     ??OSFlagPost_0:
   \   00000014   002F               CMP      R7,#+0
   \   00000016   04D1               BNE.N    ??OSFlagPost_1
    813                  *perr = OS_ERR_FLAG_INVALID_PGRP;
   \   00000018   6E20               MOVS     R0,#+110
   \   0000001A   2870               STRB     R0,[R5, #+0]
    814                  return ((OS_FLAGS)0);
   \   0000001C   0020               MOVS     R0,#+0
   \   0000001E   BDE8F081           POP      {R4-R8,PC}
    815              }
    816          #endif
    817              if (pgrp->OSFlagType != OS_EVENT_TYPE_FLAG) {    /* Make sure we are pointing to an event flag grp */
   \                     ??OSFlagPost_1:
   \   00000022   3878               LDRB     R0,[R7, #+0]
   \   00000024   0528               CMP      R0,#+5
   \   00000026   04D0               BEQ.N    ??OSFlagPost_2
    818                  *perr = OS_ERR_EVENT_TYPE;
   \   00000028   0120               MOVS     R0,#+1
   \   0000002A   2870               STRB     R0,[R5, #+0]
    819                  return ((OS_FLAGS)0);
   \   0000002C   0020               MOVS     R0,#+0
   \   0000002E   BDE8F081           POP      {R4-R8,PC}
    820              }
    821          /*$PAGE*/
    822              OS_ENTER_CRITICAL();
   \                     ??OSFlagPost_2:
   \   00000032   ........           BL       OS_CPU_SR_Save
   \   00000036   8046               MOV      R8,R0
    823              switch (opt) {
   \   00000038   002E               CMP      R6,#+0
   \   0000003A   02D0               BEQ.N    ??OSFlagPost_3
   \   0000003C   012E               CMP      R6,#+1
   \   0000003E   07D0               BEQ.N    ??OSFlagPost_4
   \   00000040   0AE0               B.N      ??OSFlagPost_5
    824                  case OS_FLAG_CLR:
    825                       pgrp->OSFlagFlags &= ~flags;            /* Clear the flags specified in the group         */
   \                     ??OSFlagPost_3:
   \   00000042   3889               LDRH     R0,[R7, #+8]
   \   00000044   E143               MVNS     R1,R4
   \   00000046   0840               ANDS     R0,R1,R0
   \   00000048   3881               STRH     R0,[R7, #+8]
    826                       break;
    827          
    828                  case OS_FLAG_SET:
    829                       pgrp->OSFlagFlags |=  flags;            /* Set   the flags specified in the group         */
    830                       break;
    831          
    832                  default:
    833                       OS_EXIT_CRITICAL();                     /* INVALID option                                 */
    834                       *perr = OS_ERR_FLAG_INVALID_OPT;
    835                       return ((OS_FLAGS)0);
    836              }
    837              sched = OS_FALSE;                                /* Indicate that we don't need rescheduling       */
   \                     ??OSFlagPost_6:
   \   0000004A   0024               MOVS     R4,#+0
    838              pnode = (OS_FLAG_NODE *)pgrp->OSFlagWaitList;
   \   0000004C   7E68               LDR      R6,[R7, #+4]
   \   0000004E   18E0               B.N      ??OSFlagPost_7
   \                     ??OSFlagPost_4:
   \   00000050   3889               LDRH     R0,[R7, #+8]
   \   00000052   2043               ORRS     R0,R4,R0
   \   00000054   3881               STRH     R0,[R7, #+8]
   \   00000056   F8E7               B.N      ??OSFlagPost_6
   \                     ??OSFlagPost_5:
   \   00000058   ........           BL       OS_CPU_SR_Restore
   \   0000005C   7120               MOVS     R0,#+113
   \   0000005E   2870               STRB     R0,[R5, #+0]
   \   00000060   0020               MOVS     R0,#+0
   \   00000062   BDE8F081           POP      {R4-R8,PC}
    839              while (pnode != (OS_FLAG_NODE *)0) {             /* Go through all tasks waiting on event flag(s)  */
    840                  switch (pnode->OSFlagNodeWaitType) {
    841                      case OS_FLAG_WAIT_SET_ALL:               /* See if all req. flags are set for current node */
    842                           flags_rdy = (OS_FLAGS)(pgrp->OSFlagFlags & pnode->OSFlagNodeFlags);
   \                     ??OSFlagPost_8:
   \   00000066   3889               LDRH     R0,[R7, #+8]
   \   00000068   318A               LDRH     R1,[R6, #+16]
   \   0000006A   0140               ANDS     R1,R1,R0
    843                           if (flags_rdy == pnode->OSFlagNodeFlags) {
   \   0000006C   0846               MOV      R0,R1
   \   0000006E   328A               LDRH     R2,[R6, #+16]
   \   00000070   9042               CMP      R0,R2
   \   00000072   05D1               BNE.N    ??OSFlagPost_9
    844                               rdy = OS_FlagTaskRdy(pnode, flags_rdy);  /* Make task RTR, event(s) Rx'd          */
   \   00000074   3046               MOV      R0,R6
   \   00000076   ........           BL       OS_FlagTaskRdy
    845                               if (rdy == OS_TRUE) {
   \   0000007A   0128               CMP      R0,#+1
   \   0000007C   00D1               BNE.N    ??OSFlagPost_9
    846                                   sched = OS_TRUE;                     /* When done we will reschedule          */
   \   0000007E   0124               MOVS     R4,#+1
    847                               }
    848                           }
    849                           break;
    850          
    851                      case OS_FLAG_WAIT_SET_ANY:               /* See if any flag set                            */
    852                           flags_rdy = (OS_FLAGS)(pgrp->OSFlagFlags & pnode->OSFlagNodeFlags);
    853                           if (flags_rdy != (OS_FLAGS)0) {
    854                               rdy = OS_FlagTaskRdy(pnode, flags_rdy);  /* Make task RTR, event(s) Rx'd          */
    855                               if (rdy == OS_TRUE) {
    856                                   sched = OS_TRUE;                     /* When done we will reschedule          */
    857                               }
    858                           }
    859                           break;
    860          
    861          #if OS_FLAG_WAIT_CLR_EN > 0
    862                      case OS_FLAG_WAIT_CLR_ALL:               /* See if all req. flags are set for current node */
    863                           flags_rdy = (OS_FLAGS)(~pgrp->OSFlagFlags & pnode->OSFlagNodeFlags);
    864                           if (flags_rdy == pnode->OSFlagNodeFlags) {
    865                               rdy = OS_FlagTaskRdy(pnode, flags_rdy);  /* Make task RTR, event(s) Rx'd          */
    866                               if (rdy == OS_TRUE) {
    867                                   sched = OS_TRUE;                     /* When done we will reschedule          */
    868                               }
    869                           }
    870                           break;
    871          
    872                      case OS_FLAG_WAIT_CLR_ANY:               /* See if any flag set                            */
    873                           flags_rdy = (OS_FLAGS)(~pgrp->OSFlagFlags & pnode->OSFlagNodeFlags);
    874                           if (flags_rdy != (OS_FLAGS)0) {
    875                               rdy = OS_FlagTaskRdy(pnode, flags_rdy);  /* Make task RTR, event(s) Rx'd          */
    876                               if (rdy == OS_TRUE) {
    877                                   sched = OS_TRUE;                     /* When done we will reschedule          */
    878                               }
    879                           }
    880                           break;
    881          #endif
    882                      default:
    883                           OS_EXIT_CRITICAL();
    884                           *perr = OS_ERR_FLAG_WAIT_TYPE;
    885                           return ((OS_FLAGS)0);
    886                  }
    887                  pnode = (OS_FLAG_NODE *)pnode->OSFlagNodeNext; /* Point to next task waiting for event flag(s) */
   \                     ??OSFlagPost_9:
   \   00000080   3668               LDR      R6,[R6, #+0]
   \                     ??OSFlagPost_7:
   \   00000082   002E               CMP      R6,#+0
   \   00000084   35D0               BEQ.N    ??OSFlagPost_10
   \   00000086   B07C               LDRB     R0,[R6, #+18]
   \   00000088   0028               CMP      R0,#+0
   \   0000008A   0FD0               BEQ.N    ??OSFlagPost_11
   \   0000008C   0228               CMP      R0,#+2
   \   0000008E   EAD0               BEQ.N    ??OSFlagPost_8
   \   00000090   1BD3               BCC.N    ??OSFlagPost_12
   \   00000092   0328               CMP      R0,#+3
   \   00000094   25D1               BNE.N    ??OSFlagPost_13
   \   00000096   3889               LDRH     R0,[R7, #+8]
   \   00000098   318A               LDRH     R1,[R6, #+16]
   \   0000009A   0140               ANDS     R1,R1,R0
   \   0000009C   F0D0               BEQ.N    ??OSFlagPost_9
   \   0000009E   3046               MOV      R0,R6
   \   000000A0   ........           BL       OS_FlagTaskRdy
   \   000000A4   0128               CMP      R0,#+1
   \   000000A6   EBD1               BNE.N    ??OSFlagPost_9
   \   000000A8   0124               MOVS     R4,#+1
   \   000000AA   E9E7               B.N      ??OSFlagPost_9
   \                     ??OSFlagPost_11:
   \   000000AC   3889               LDRH     R0,[R7, #+8]
   \   000000AE   C043               MVNS     R0,R0
   \   000000B0   318A               LDRH     R1,[R6, #+16]
   \   000000B2   0140               ANDS     R1,R1,R0
   \   000000B4   0846               MOV      R0,R1
   \   000000B6   328A               LDRH     R2,[R6, #+16]
   \   000000B8   9042               CMP      R0,R2
   \   000000BA   E1D1               BNE.N    ??OSFlagPost_9
   \   000000BC   3046               MOV      R0,R6
   \   000000BE   ........           BL       OS_FlagTaskRdy
   \   000000C2   0128               CMP      R0,#+1
   \   000000C4   DCD1               BNE.N    ??OSFlagPost_9
   \   000000C6   0124               MOVS     R4,#+1
   \   000000C8   DAE7               B.N      ??OSFlagPost_9
   \                     ??OSFlagPost_12:
   \   000000CA   3889               LDRH     R0,[R7, #+8]
   \   000000CC   C043               MVNS     R0,R0
   \   000000CE   318A               LDRH     R1,[R6, #+16]
   \   000000D0   0140               ANDS     R1,R1,R0
   \   000000D2   D5D0               BEQ.N    ??OSFlagPost_9
   \   000000D4   3046               MOV      R0,R6
   \   000000D6   ........           BL       OS_FlagTaskRdy
   \   000000DA   0128               CMP      R0,#+1
   \   000000DC   D0D1               BNE.N    ??OSFlagPost_9
   \   000000DE   0124               MOVS     R4,#+1
   \   000000E0   CEE7               B.N      ??OSFlagPost_9
   \                     ??OSFlagPost_13:
   \   000000E2   4046               MOV      R0,R8
   \   000000E4   ........           BL       OS_CPU_SR_Restore
   \   000000E8   6F20               MOVS     R0,#+111
   \   000000EA   2870               STRB     R0,[R5, #+0]
   \   000000EC   0020               MOVS     R0,#+0
   \   000000EE   BDE8F081           POP      {R4-R8,PC}
    888              }
    889              OS_EXIT_CRITICAL();
   \                     ??OSFlagPost_10:
   \   000000F2   4046               MOV      R0,R8
   \   000000F4   ........           BL       OS_CPU_SR_Restore
    890              if (sched == OS_TRUE) {
   \   000000F8   012C               CMP      R4,#+1
   \   000000FA   01D1               BNE.N    ??OSFlagPost_14
    891                  OS_Sched();
   \   000000FC   ........           BL       OS_Sched
    892              }
    893              OS_ENTER_CRITICAL();
   \                     ??OSFlagPost_14:
   \   00000100   ........           BL       OS_CPU_SR_Save
    894              flags_cur = pgrp->OSFlagFlags;
   \   00000104   3C89               LDRH     R4,[R7, #+8]
    895              OS_EXIT_CRITICAL();
   \   00000106   ........           BL       OS_CPU_SR_Restore
    896              *perr     = OS_ERR_NONE;
   \   0000010A   0020               MOVS     R0,#+0
   \   0000010C   2870               STRB     R0,[R5, #+0]
    897              return (flags_cur);
   \   0000010E   2046               MOV      R0,R4
   \   00000110   BDE8F081           POP      {R4-R8,PC}       ;; return
    898          }
    899          /*$PAGE*/
    900          /*
    901          *********************************************************************************************************
    902          *                                           QUERY EVENT FLAG
    903          *
    904          * Description: This function is used to check the value of the event flag group.
    905          *
    906          * Arguments  : pgrp         is a pointer to the desired event flag group.
    907          *
    908          *              perr          is a pointer to an error code returned to the called:
    909          *                            OS_ERR_NONE                The call was successfull
    910          *                            OS_ERR_FLAG_INVALID_PGRP   You passed a NULL pointer
    911          *                            OS_ERR_EVENT_TYPE          You are not pointing to an event flag group
    912          *
    913          * Returns    : The current value of the event flag group.
    914          *
    915          * Called From: Task or ISR
    916          *********************************************************************************************************
    917          */
    918          
    919          #if OS_FLAG_QUERY_EN > 0

   \                                 In section .text, align 2, keep-with-next
    920          OS_FLAGS  OSFlagQuery (OS_FLAG_GRP *pgrp, INT8U *perr)
    921          {
   \                     OSFlagQuery:
   \   00000000   38B5               PUSH     {R3-R5,LR}
   \   00000002   0546               MOV      R5,R0
   \   00000004   0C00               MOVS     R4,R1
    922              OS_FLAGS   flags;
    923          #if OS_CRITICAL_METHOD == 3                       /* Allocate storage for CPU status register          */
    924              OS_CPU_SR  cpu_sr = 0;
    925          #endif
    926          
    927          
    928          
    929          #if OS_ARG_CHK_EN > 0
    930              if (perr == (INT8U *)0) {                     /* Validate 'perr'                                   */
   \   00000006   01D1               BNE.N    ??OSFlagQuery_0
    931                  return ((OS_FLAGS)0);
   \   00000008   0020               MOVS     R0,#+0
   \   0000000A   32BD               POP      {R1,R4,R5,PC}
    932              }
    933              if (pgrp == (OS_FLAG_GRP *)0) {               /* Validate 'pgrp'                                   */
   \                     ??OSFlagQuery_0:
   \   0000000C   002D               CMP      R5,#+0
   \   0000000E   03D1               BNE.N    ??OSFlagQuery_1
    934                  *perr = OS_ERR_FLAG_INVALID_PGRP;
   \   00000010   6E20               MOVS     R0,#+110
   \   00000012   2070               STRB     R0,[R4, #+0]
    935                  return ((OS_FLAGS)0);
   \   00000014   0020               MOVS     R0,#+0
   \   00000016   32BD               POP      {R1,R4,R5,PC}
    936              }
    937          #endif
    938              if (pgrp->OSFlagType != OS_EVENT_TYPE_FLAG) { /* Validate event block type                         */
   \                     ??OSFlagQuery_1:
   \   00000018   2878               LDRB     R0,[R5, #+0]
   \   0000001A   0528               CMP      R0,#+5
   \   0000001C   03D0               BEQ.N    ??OSFlagQuery_2
    939                  *perr = OS_ERR_EVENT_TYPE;
   \   0000001E   0120               MOVS     R0,#+1
   \   00000020   2070               STRB     R0,[R4, #+0]
    940                  return ((OS_FLAGS)0);
   \   00000022   0020               MOVS     R0,#+0
   \   00000024   32BD               POP      {R1,R4,R5,PC}
    941              }
    942              OS_ENTER_CRITICAL();
   \                     ??OSFlagQuery_2:
   \   00000026   ........           BL       OS_CPU_SR_Save
    943              flags = pgrp->OSFlagFlags;
   \   0000002A   2D89               LDRH     R5,[R5, #+8]
    944              OS_EXIT_CRITICAL();
   \   0000002C   ........           BL       OS_CPU_SR_Restore
    945              *perr = OS_ERR_NONE;
   \   00000030   0020               MOVS     R0,#+0
   \   00000032   2070               STRB     R0,[R4, #+0]
    946              return (flags);                               /* Return the current value of the event flags       */
   \   00000034   2846               MOV      R0,R5
   \   00000036   32BD               POP      {R1,R4,R5,PC}    ;; return
    947          }
    948          #endif
    949          
    950          /*$PAGE*/
    951          /*
    952          *********************************************************************************************************
    953          *                         SUSPEND TASK UNTIL EVENT FLAG(s) RECEIVED OR TIMEOUT OCCURS
    954          *
    955          * Description: This function is internal to uC/OS-II and is used to put a task to sleep until the desired
    956          *              event flag bit(s) are set.
    957          *
    958          * Arguments  : pgrp          is a pointer to the desired event flag group.
    959          *
    960          *              pnode         is a pointer to a structure which contains data about the task waiting for
    961          *                            event flag bit(s) to be set.
    962          *
    963          *              flags         Is a bit pattern indicating which bit(s) (i.e. flags) you wish to check.
    964          *                            The bits you want are specified by setting the corresponding bits in
    965          *                            'flags'.  e.g. if your application wants to wait for bits 0 and 1 then
    966          *                            'flags' would contain 0x03.
    967          *
    968          *              wait_type     specifies whether you want ALL bits to be set/cleared or ANY of the bits
    969          *                            to be set/cleared.
    970          *                            You can specify the following argument:
    971          *
    972          *                            OS_FLAG_WAIT_CLR_ALL   You will check ALL bits in 'mask' to be clear (0)
    973          *                            OS_FLAG_WAIT_CLR_ANY   You will check ANY bit  in 'mask' to be clear (0)
    974          *                            OS_FLAG_WAIT_SET_ALL   You will check ALL bits in 'mask' to be set   (1)
    975          *                            OS_FLAG_WAIT_SET_ANY   You will check ANY bit  in 'mask' to be set   (1)
    976          *
    977          *              timeout       is the desired amount of time that the task will wait for the event flag
    978          *                            bit(s) to be set.
    979          *
    980          * Returns    : none
    981          *
    982          * Called by  : OSFlagPend()  OS_FLAG.C
    983          *
    984          * Note(s)    : This function is INTERNAL to uC/OS-II and your application should not call it.
    985          *********************************************************************************************************
    986          */
    987          

   \                                 In section .text, align 2, keep-with-next
    988          static  void  OS_FlagBlock (OS_FLAG_GRP *pgrp, OS_FLAG_NODE *pnode, OS_FLAGS flags, INT8U wait_type, INT16U timeout)
    989          {
   \                     OS_FlagBlock:
   \   00000000   F0B4               PUSH     {R4-R7}
   \   00000002   1C46               MOV      R4,R3
   \   00000004   049B               LDR      R3,[SP, #+16]
    990              OS_FLAG_NODE  *pnode_next;
    991              INT8U          y;
    992          
    993          
    994              OSTCBCur->OSTCBStat      |= OS_STAT_FLAG;
   \   00000006   ....               LDR.N    R5,??DataTable11  ;; OSTCBCur
   \   00000008   2E68               LDR      R6,[R5, #+0]
   \   0000000A   96F83070           LDRB     R7,[R6, #+48]
   \   0000000E   47F02007           ORR      R7,R7,#0x20
   \   00000012   86F83070           STRB     R7,[R6, #+48]
    995              OSTCBCur->OSTCBStatPend   = OS_STAT_PEND_OK;
   \   00000016   2E68               LDR      R6,[R5, #+0]
   \   00000018   0027               MOVS     R7,#+0
   \   0000001A   86F83170           STRB     R7,[R6, #+49]
    996              OSTCBCur->OSTCBDly        = timeout;              /* Store timeout in task's TCB                   */
   \   0000001E   2E68               LDR      R6,[R5, #+0]
   \   00000020   F385               STRH     R3,[R6, #+46]
    997          #if OS_TASK_DEL_EN > 0
    998              OSTCBCur->OSTCBFlagNode   = pnode;                /* TCB to link to node                           */
   \   00000022   2B68               LDR      R3,[R5, #+0]
   \   00000024   9962               STR      R1,[R3, #+40]
    999          #endif
   1000              pnode->OSFlagNodeFlags    = flags;                /* Save the flags that we need to wait for       */
   \   00000026   0A82               STRH     R2,[R1, #+16]
   1001              pnode->OSFlagNodeWaitType = wait_type;            /* Save the type of wait we are doing            */
   \   00000028   8C74               STRB     R4,[R1, #+18]
   1002              pnode->OSFlagNodeTCB      = (void *)OSTCBCur;     /* Link to task's TCB                            */
   \   0000002A   2A68               LDR      R2,[R5, #+0]
   \   0000002C   8A60               STR      R2,[R1, #+8]
   1003              pnode->OSFlagNodeNext     = pgrp->OSFlagWaitList; /* Add node at beginning of event flag wait list */
   \   0000002E   4268               LDR      R2,[R0, #+4]
   \   00000030   0A60               STR      R2,[R1, #+0]
   1004              pnode->OSFlagNodePrev     = (void *)0;
   \   00000032   3A46               MOV      R2,R7
   \   00000034   4A60               STR      R2,[R1, #+4]
   1005              pnode->OSFlagNodeFlagGrp  = (void *)pgrp;         /* Link to Event Flag Group                      */
   \   00000036   C860               STR      R0,[R1, #+12]
   1006              pnode_next                = (OS_FLAG_NODE *)pgrp->OSFlagWaitList;
   \   00000038   4268               LDR      R2,[R0, #+4]
   1007              if (pnode_next != (void *)0) {                    /* Is this the first NODE to insert?             */
   \   0000003A   002A               CMP      R2,#+0
   \   0000003C   00D0               BEQ.N    ??OS_FlagBlock_0
   1008                  pnode_next->OSFlagNodePrev = pnode;           /* No, link in doubly linked list                */
   \   0000003E   5160               STR      R1,[R2, #+4]
   1009              }
   1010              pgrp->OSFlagWaitList = (void *)pnode;
   \                     ??OS_FlagBlock_0:
   \   00000040   4160               STR      R1,[R0, #+4]
   1011          
   1012              y            =  OSTCBCur->OSTCBY;                 /* Suspend current task until flag(s) received   */
   \   00000042   2868               LDR      R0,[R5, #+0]
   \   00000044   90F83410           LDRB     R1,[R0, #+52]
   1013              OSRdyTbl[y] &= ~OSTCBCur->OSTCBBitX;
   \   00000048   3430               ADDS     R0,R0,#+52
   \   0000004A   ....               LDR.N    R2,??DataTable16  ;; OSRdyTbl
   \   0000004C   8B5C               LDRB     R3,[R1, R2]
   \   0000004E   4478               LDRB     R4,[R0, #+1]
   \   00000050   E443               MVNS     R4,R4
   \   00000052   2340               ANDS     R3,R4,R3
   \   00000054   8B54               STRB     R3,[R1, R2]
   1014              if (OSRdyTbl[y] == 0x00) {
   \   00000056   05D1               BNE.N    ??OS_FlagBlock_1
   1015                  OSRdyGrp &= ~OSTCBCur->OSTCBBitY;
   \   00000058   ....               LDR.N    R1,??DataTable15  ;; OSRdyGrp
   \   0000005A   0A78               LDRB     R2,[R1, #+0]
   \   0000005C   8078               LDRB     R0,[R0, #+2]
   \   0000005E   C043               MVNS     R0,R0
   \   00000060   1040               ANDS     R0,R0,R2
   \   00000062   0870               STRB     R0,[R1, #+0]
   1016              }
   1017          }
   \                     ??OS_FlagBlock_1:
   \   00000064   F0BC               POP      {R4-R7}
   \   00000066   7047               BX       LR               ;; return
   1018          
   1019          /*$PAGE*/
   1020          /*
   1021          *********************************************************************************************************
   1022          *                                    INITIALIZE THE EVENT FLAG MODULE
   1023          *
   1024          * Description: This function is called by uC/OS-II to initialize the event flag module.  Your application
   1025          *              MUST NOT call this function.  In other words, this function is internal to uC/OS-II.
   1026          *
   1027          * Arguments  : none
   1028          *
   1029          * Returns    : none
   1030          *
   1031          * WARNING    : You MUST NOT call this function from your code.  This is an INTERNAL function to uC/OS-II.
   1032          *********************************************************************************************************
   1033          */
   1034          

   \                                 In section .text, align 4, keep-with-next
   1035          void  OS_FlagInit (void)
   1036          {
   \                     OS_FlagInit:
   \   00000000   10B5               PUSH     {R4,LR}
   1037          #if OS_MAX_FLAGS == 1
   1038              OSFlagFreeList                 = (OS_FLAG_GRP *)&OSFlagTbl[0];  /* Only ONE event flag group!      */
   1039              OSFlagFreeList->OSFlagType     = OS_EVENT_TYPE_UNUSED;
   1040              OSFlagFreeList->OSFlagWaitList = (void *)0;
   1041              OSFlagFreeList->OSFlagFlags    = (OS_FLAGS)0;
   1042          #if OS_FLAG_NAME_SIZE > 1
   1043              OSFlagFreeList->OSFlagName[0]  = '?';
   1044              OSFlagFreeList->OSFlagName[1]  = OS_ASCII_NUL;
   1045          #endif
   1046          #endif
   1047          
   1048          #if OS_MAX_FLAGS >= 2
   1049              INT16U       i;
   1050              OS_FLAG_GRP *pgrp1;
   1051              OS_FLAG_GRP *pgrp2;
   1052          
   1053          
   1054              OS_MemClr((INT8U *)&OSFlagTbl[0], sizeof(OSFlagTbl));           /* Clear the flag group table      */
   \   00000002   124C               LDR.N    R4,??OS_FlagInit_0  ;; OSFlagTbl
   \   00000004   8C21               MOVS     R1,#+140
   \   00000006   2046               MOV      R0,R4
   \   00000008   ........           BL       OS_MemClr
   1055              pgrp1 = &OSFlagTbl[0];
   \   0000000C   2046               MOV      R0,R4
   1056              pgrp2 = &OSFlagTbl[1];
   \   0000000E   04F11C01           ADD      R1,R4,#+28
   1057              for (i = 0; i < (OS_MAX_FLAGS - 1); i++) {                      /* Init. list of free EVENT FLAGS  */
   \   00000012   0022               MOVS     R2,#+0
   \   00000014   0DE0               B.N      ??OS_FlagInit_1
   1058                  pgrp1->OSFlagType     = OS_EVENT_TYPE_UNUSED;
   \                     ??OS_FlagInit_2:
   \   00000016   0023               MOVS     R3,#+0
   \   00000018   00F8043B           STRB     R3,[R0], #+4
   1059                  pgrp1->OSFlagWaitList = (void *)pgrp2;
   \   0000001C   40F8061B           STR      R1,[R0], #+6
   1060          #if OS_FLAG_NAME_SIZE > 1
   1061                  pgrp1->OSFlagName[0]  = '?';                                /* Unknown name                    */
   \   00000020   3F23               MOVS     R3,#+63
   \   00000022   00F8013B           STRB     R3,[R0], #+1
   1062                  pgrp1->OSFlagName[1]  = OS_ASCII_NUL;
   \   00000026   0023               MOVS     R3,#+0
   \   00000028   00F8113B           STRB     R3,[R0], #+17
   1063          #endif
   1064                  pgrp1++;
   1065                  pgrp2++;
   \   0000002C   1C31               ADDS     R1,R1,#+28
   1066              }
   \   0000002E   521C               ADDS     R2,R2,#+1
   \   00000030   92B2               UXTH     R2,R2
   \                     ??OS_FlagInit_1:
   \   00000032   1346               MOV      R3,R2
   \   00000034   042B               CMP      R3,#+4
   \   00000036   EED3               BCC.N    ??OS_FlagInit_2
   1067              pgrp1->OSFlagType     = OS_EVENT_TYPE_UNUSED;
   \   00000038   0021               MOVS     R1,#+0
   \   0000003A   0170               STRB     R1,[R0, #+0]
   1068              pgrp1->OSFlagWaitList = (void *)0;
   \   0000003C   4160               STR      R1,[R0, #+4]
   1069          #if OS_FLAG_NAME_SIZE > 1
   1070              pgrp1->OSFlagName[0]  = '?';                                    /* Unknown name                    */
   \   0000003E   3F21               MOVS     R1,#+63
   \   00000040   8172               STRB     R1,[R0, #+10]
   1071              pgrp1->OSFlagName[1]  = OS_ASCII_NUL;
   \   00000042   0021               MOVS     R1,#+0
   \   00000044   C172               STRB     R1,[R0, #+11]
   1072          #endif
   1073              OSFlagFreeList        = &OSFlagTbl[0];
   \   00000046   ....               LDR.N    R0,??DataTable14  ;; OSFlagFreeList
   \   00000048   0460               STR      R4,[R0, #+0]
   1074          #endif
   1075          }
   \   0000004A   10BD               POP      {R4,PC}          ;; return
   \                     ??OS_FlagInit_0:
   \   0000004C   ........           DC32     OSFlagTbl
   1076          
   1077          /*$PAGE*/
   1078          /*
   1079          *********************************************************************************************************
   1080          *                              MAKE TASK READY-TO-RUN, EVENT(s) OCCURRED
   1081          *
   1082          * Description: This function is internal to uC/OS-II and is used to make a task ready-to-run because the
   1083          *              desired event flag bits have been set.
   1084          *
   1085          * Arguments  : pnode         is a pointer to a structure which contains data about the task waiting for
   1086          *                            event flag bit(s) to be set.
   1087          *
   1088          *              flags_rdy     contains the bit pattern of the event flags that cause the task to become
   1089          *                            ready-to-run.
   1090          *
   1091          * Returns    : OS_TRUE       If the task has been placed in the ready list and thus needs scheduling
   1092          *              OS_FALSE      The task is still not ready to run and thus scheduling is not necessary
   1093          *
   1094          * Called by  : OSFlagsPost() OS_FLAG.C
   1095          *
   1096          * Note(s)    : 1) This function assumes that interrupts are disabled.
   1097          *              2) This function is INTERNAL to uC/OS-II and your application should not call it.
   1098          *********************************************************************************************************
   1099          */
   1100          

   \                                 In section .text, align 2, keep-with-next
   1101          static  BOOLEAN  OS_FlagTaskRdy (OS_FLAG_NODE *pnode, OS_FLAGS flags_rdy)
   1102          {
   \                     OS_FlagTaskRdy:
   \   00000000   10B5               PUSH     {R4,LR}
   1103              OS_TCB   *ptcb;
   1104              BOOLEAN   sched;
   1105          
   1106          
   1107              ptcb                 = (OS_TCB *)pnode->OSFlagNodeTCB; /* Point to TCB of waiting task             */
   \   00000002   8368               LDR      R3,[R0, #+8]
   1108              ptcb->OSTCBDly       = 0;
   \   00000004   03F12C02           ADD      R2,R3,#+44
   \   00000008   0024               MOVS     R4,#+0
   \   0000000A   5480               STRH     R4,[R2, #+2]
   1109              ptcb->OSTCBFlagsRdy  = flags_rdy;
   \   0000000C   9985               STRH     R1,[R3, #+44]
   1110              ptcb->OSTCBStat     &= ~(INT8U)OS_STAT_FLAG;
   \   0000000E   1179               LDRB     R1,[R2, #+4]
   \   00000010   21F02001           BIC      R1,R1,#0x20
   \   00000014   1171               STRB     R1,[R2, #+4]
   1111              ptcb->OSTCBStatPend  = OS_STAT_PEND_OK;
   \   00000016   2146               MOV      R1,R4
   \   00000018   5171               STRB     R1,[R2, #+5]
   1112              if (ptcb->OSTCBStat == OS_STAT_RDY) {                  /* Task now ready?                          */
   \   0000001A   1179               LDRB     R1,[R2, #+4]
   \   0000001C   0029               CMP      R1,#+0
   \   0000001E   0CD1               BNE.N    ??OS_FlagTaskRdy_0
   1113                  OSRdyGrp               |= ptcb->OSTCBBitY;         /* Put task into ready list                 */
   \   00000020   ....               LDR.N    R1,??DataTable15  ;; OSRdyGrp
   \   00000022   0B78               LDRB     R3,[R1, #+0]
   \   00000024   947A               LDRB     R4,[R2, #+10]
   \   00000026   2343               ORRS     R3,R4,R3
   \   00000028   0B70               STRB     R3,[R1, #+0]
   1114                  OSRdyTbl[ptcb->OSTCBY] |= ptcb->OSTCBBitX;
   \   0000002A   ....               LDR.N    R1,??DataTable16  ;; OSRdyTbl
   \   0000002C   137A               LDRB     R3,[R2, #+8]
   \   0000002E   5B5C               LDRB     R3,[R3, R1]
   \   00000030   547A               LDRB     R4,[R2, #+9]
   \   00000032   2343               ORRS     R3,R4,R3
   \   00000034   127A               LDRB     R2,[R2, #+8]
   \   00000036   5354               STRB     R3,[R2, R1]
   1115                  sched                   = OS_TRUE;
   \   00000038   0124               MOVS     R4,#+1
   1116              } else {
   1117                  sched                   = OS_FALSE;
   1118              }
   1119              OS_FlagUnlink(pnode);
   \                     ??OS_FlagTaskRdy_0:
   \   0000003A   ........           BL       OS_FlagUnlink
   1120              return (sched);
   \   0000003E   2046               MOV      R0,R4
   \   00000040   10BD               POP      {R4,PC}          ;; return
   1121          }
   1122          
   1123          /*$PAGE*/
   1124          /*
   1125          *********************************************************************************************************
   1126          *                                  UNLINK EVENT FLAG NODE FROM WAITING LIST
   1127          *
   1128          * Description: This function is internal to uC/OS-II and is used to unlink an event flag node from a
   1129          *              list of tasks waiting for the event flag.
   1130          *
   1131          * Arguments  : pnode         is a pointer to a structure which contains data about the task waiting for
   1132          *                            event flag bit(s) to be set.
   1133          *
   1134          * Returns    : none
   1135          *
   1136          * Called by  : OS_FlagTaskRdy() OS_FLAG.C
   1137          *              OSFlagPend()     OS_FLAG.C
   1138          *              OSTaskDel()      OS_TASK.C
   1139          *
   1140          * Note(s)    : 1) This function assumes that interrupts are disabled.
   1141          *              2) This function is INTERNAL to uC/OS-II and your application should not call it.
   1142          *********************************************************************************************************
   1143          */
   1144          

   \                                 In section .text, align 2, keep-with-next
   1145          void  OS_FlagUnlink (OS_FLAG_NODE *pnode)
   1146          {
   1147          #if OS_TASK_DEL_EN > 0
   1148              OS_TCB       *ptcb;
   1149          #endif
   1150              OS_FLAG_GRP  *pgrp;
   1151              OS_FLAG_NODE *pnode_prev;
   1152              OS_FLAG_NODE *pnode_next;
   1153          
   1154          
   1155              pnode_prev = (OS_FLAG_NODE *)pnode->OSFlagNodePrev;
   \                     OS_FlagUnlink:
   \   00000000   4168               LDR      R1,[R0, #+4]
   1156              pnode_next = (OS_FLAG_NODE *)pnode->OSFlagNodeNext;
   \   00000002   0268               LDR      R2,[R0, #+0]
   1157              if (pnode_prev == (OS_FLAG_NODE *)0) {                      /* Is it first node in wait list?      */
   \   00000004   0029               CMP      R1,#+0
   \   00000006   06D1               BNE.N    ??OS_FlagUnlink_0
   1158                  pgrp                 = (OS_FLAG_GRP *)pnode->OSFlagNodeFlagGrp;
   1159                  pgrp->OSFlagWaitList = (void *)pnode_next;              /*      Update list for new 1st node   */
   \   00000008   C168               LDR      R1,[R0, #+12]
   \   0000000A   4A60               STR      R2,[R1, #+4]
   1160                  if (pnode_next != (OS_FLAG_NODE *)0) {
   \   0000000C   002A               CMP      R2,#+0
   \   0000000E   06D0               BEQ.N    ??OS_FlagUnlink_1
   1161                      pnode_next->OSFlagNodePrev = (OS_FLAG_NODE *)0;     /*      Link new 1st node PREV to NULL */
   \   00000010   0021               MOVS     R1,#+0
   \   00000012   5160               STR      R1,[R2, #+4]
   \   00000014   03E0               B.N      ??OS_FlagUnlink_1
   1162                  }
   1163              } else {                                                    /* No,  A node somewhere in the list   */
   1164                  pnode_prev->OSFlagNodeNext = pnode_next;                /*      Link around the node to unlink */
   \                     ??OS_FlagUnlink_0:
   \   00000016   0A60               STR      R2,[R1, #+0]
   1165                  if (pnode_next != (OS_FLAG_NODE *)0) {                  /*      Was this the LAST node?        */
   \   00000018   002A               CMP      R2,#+0
   \   0000001A   00D0               BEQ.N    ??OS_FlagUnlink_1
   1166                      pnode_next->OSFlagNodePrev = pnode_prev;            /*      No, Link around current node   */
   \   0000001C   5160               STR      R1,[R2, #+4]
   1167                  }
   1168              }
   1169          #if OS_TASK_DEL_EN > 0
   1170              ptcb                = (OS_TCB *)pnode->OSFlagNodeTCB;
   1171              ptcb->OSTCBFlagNode = (OS_FLAG_NODE *)0;
   \                     ??OS_FlagUnlink_1:
   \   0000001E   8068               LDR      R0,[R0, #+8]
   \   00000020   0021               MOVS     R1,#+0
   \   00000022   8162               STR      R1,[R0, #+40]
   1172          #endif
   1173          }
   \   00000024   7047               BX       LR               ;; return

   \                                 In section .text, align 4, keep-with-next
   \                     ??DataTable7:
   \   00000000   ........           DC32     OSIntNesting

   \                                 In section .text, align 4, keep-with-next
   \                     ??DataTable11:
   \   00000000   ........           DC32     OSTCBCur

   \                                 In section .text, align 4, keep-with-next
   \                     ??DataTable14:
   \   00000000   ........           DC32     OSFlagFreeList

   \                                 In section .text, align 4, keep-with-next
   \                     ??DataTable15:
   \   00000000   ........           DC32     OSRdyGrp

   \                                 In section .text, align 4, keep-with-next
   \                     ??DataTable16:
   \   00000000   ........           DC32     OSRdyTbl
   1174          #endif

   Maximum stack usage in bytes:

     Function              .cstack
     --------              -------
     OSFlagAccept              24
     OSFlagCreate              16
     OSFlagDel                 24
     OSFlagNameGet             24
     OSFlagNameSet             24
     OSFlagPend                72
     OSFlagPendGetFlagsRdy      8
     OSFlagPost                24
     OSFlagQuery               16
     OS_FlagBlock              16
     OS_FlagInit                8
     OS_FlagTaskRdy             8
     OS_FlagUnlink              0


   Section sizes:

     Function/Label        Bytes
     --------------        -----
     OSFlagAccept           196
     OSFlagCreate            88
     OSFlagDel              234
     OSFlagNameGet          106
     OSFlagNameSet          112
     OSFlagPend             428
     OSFlagPendGetFlagsRdy   20
     OSFlagPost             276
     OSFlagQuery             56
     OS_FlagBlock           104
     OS_FlagInit             80
     OS_FlagTaskRdy          66
     OS_FlagUnlink           38
     ??DataTable7             4
     ??DataTable11            4
     ??DataTable14            4
     ??DataTable15            4
     ??DataTable16            4

 
 1 824 bytes in section .text
 
 1 824 bytes of CODE memory

Errors: none
Warnings: none
